(dp1
S'files'
p2
(dp3
S'lib_python2_7_site-packages_django_core_files_move'
p4
(dp5
S'index'
p6
(dp7
S'html_filename'
p8
S'lib_python2_7_site-packages_django_core_files_move.html'
p9
sS'name'
p10
S'lib/python2.7/site-packages/django/core/files/move'
p11
sS'nums'
p12
ccopy_reg
_reconstructor
p13
(ccoverage.results
Numbers
p14
c__builtin__
object
p15
NtRp16
(dp17
S'n_files'
p18
I1
sS'n_branches'
p19
I0
sS'n_statements'
p20
I37
sS'n_excluded'
p21
I0
sS'n_partial_branches'
p22
I0
sS'n_missing'
p23
I31
sS'n_missing_branches'
p24
I0
sbssS'hash'
p25
S'\x91<\xde~\x0f\xdf\xb7\xf9vB\x8dg&|R\x86'
p26
ssS'lib_python2_7_site-packages_django_contrib_contenttypes_models'
p27
(dp28
g6
(dp29
g8
S'lib_python2_7_site-packages_django_contrib_contenttypes_models.html'
p30
sg10
S'lib/python2.7/site-packages/django/contrib/contenttypes/models'
p31
sg12
g13
(g14
g15
NtRp32
(dp33
g18
I1
sg19
I0
sg20
I118
sg21
I0
sg22
I0
sg23
I59
sg24
I0
sbssg25
S'\xdbD\xf7\xb8\xa8{o\x04\xbdbu\xc4\xcc\x94\x89\xb6'
p34
ssS'lib_python2_7_site-packages_django_core_mail_utils'
p35
(dp36
g6
(dp37
g8
S'lib_python2_7_site-packages_django_core_mail_utils.html'
p38
sg10
S'lib/python2.7/site-packages/django/core/mail/utils'
p39
sg12
g13
(g14
g15
NtRp40
(dp41
g18
I1
sg19
I0
sg20
I9
sg21
I0
sg22
I0
sg23
I4
sg24
I0
sbssg25
S'q\x8f\x86\xa8\x10\xa1\x04\x98^\x0e\xe8\x93\xb7X\xaan'
p42
ssS'lib_python2_7_site-packages_django_core_files_uploadedfile'
p43
(dp44
g6
(dp45
g8
S'lib_python2_7_site-packages_django_core_files_uploadedfile.html'
p46
sg10
S'lib/python2.7/site-packages/django/core/files/uploadedfile'
p47
sg12
g13
(g14
g15
NtRp48
(dp49
g18
I1
sg19
I0
sg20
I60
sg21
I0
sg22
I0
sg23
I33
sg24
I0
sbssg25
S'\xb9M\x13B8\xba|\xb6B/\xd1\r\xe5y\x1b\xfe'
p50
ssS'lib_python2_7_site-packages_django_utils_text'
p51
(dp52
g6
(dp53
g8
S'lib_python2_7_site-packages_django_utils_text.html'
p54
sg10
S'lib/python2.7/site-packages/django/utils/text'
p55
sg12
g13
(g14
g15
NtRp56
(dp57
g18
I1
sg19
I0
sg20
I242
sg21
I0
sg22
I0
sg23
I177
sg24
I0
sbssg25
S'\x81cG\xfc\x0b\xe2.t\xe2+k\x9b4\xa9*\xef'
p58
ssS'lib_python2_7_site-packages_django_db_models_signals'
p59
(dp60
g6
(dp61
g8
S'lib_python2_7_site-packages_django_db_models_signals.html'
p62
sg10
S'lib/python2.7/site-packages/django/db/models/signals'
p63
sg12
g13
(g14
g15
NtRp64
(dp65
g18
I1
sg19
I0
sg20
I43
sg21
I0
sg22
I0
sg23
I15
sg24
I0
sbssg25
S'T\xbb\x8a\x88y\x8e\xc6\x17ag\x90\xd0\x18\xa3*+'
p66
ssS'lib_python2_7_site-packages_django_db_backends_base_validation'
p67
(dp68
g6
(dp69
g8
S'lib_python2_7_site-packages_django_db_backends_base_validation.html'
p70
sg10
S'lib/python2.7/site-packages/django/db/backends/base/validation'
p71
sg12
g13
(g14
g15
NtRp72
(dp73
g18
I1
sg19
I0
sg20
I14
sg21
I0
sg22
I0
sg23
I8
sg24
I0
sbssg25
S'\t\xe8YH}\xf4\x1b*\xb0$\x9dJ\xcb\xe84\x99'
p74
ssS'lib_python2_7_site-packages_django_db_models_deletion'
p75
(dp76
g6
(dp77
g8
S'lib_python2_7_site-packages_django_db_models_deletion.html'
p78
sg10
S'lib/python2.7/site-packages/django/db/models/deletion'
p79
sg12
g13
(g14
g15
NtRp80
(dp81
g18
I1
sg19
I0
sg20
I167
sg21
I0
sg22
I0
sg23
I141
sg24
I0
sbssg25
S'\x93\x87/\xebxr\xe8\x1a(<JoU\xe0Uc'
p82
ssS'lib_python2_7_site-packages_django_db_migrations_writer'
p83
(dp84
g6
(dp85
g8
S'lib_python2_7_site-packages_django_db_migrations_writer.html'
p86
sg10
S'lib/python2.7/site-packages/django/db/migrations/writer'
p87
sg12
g13
(g14
g15
NtRp88
(dp89
g18
I1
sg19
I0
sg20
I314
sg21
I0
sg22
I0
sg23
I270
sg24
I0
sbssg25
S'\xda\\\xdaC`\x98n\x10\xcc\x1f\xa2\xa6\x97\xd8R2'
p90
ssS'lib_python2_7_site-packages_django_views_debug'
p91
(dp92
g6
(dp93
g8
S'lib_python2_7_site-packages_django_views_debug.html'
p94
sg10
S'lib/python2.7/site-packages/django/views/debug'
p95
sg12
g13
(g14
g15
NtRp96
(dp97
g18
I1
sg19
I0
sg20
I330
sg21
I0
sg22
I0
sg23
I276
sg24
I0
sbssg25
S'\xb6\xdb\xd2\xa2\xec\xa4\xa3\xc8\x12N\xfb\xa6\x1e\x8f/>'
p98
ssS'lib_python2_7_site-packages_django_db_models___init__'
p99
(dp100
g6
(dp101
g8
S'lib_python2_7_site-packages_django_db_models___init__.html'
p102
sg10
S'lib/python2.7/site-packages/django/db/models/__init__'
p103
sg12
g13
(g14
g15
NtRp104
(dp105
g18
I1
sg19
I0
sg20
I35
sg21
I0
sg22
I0
sg23
I8
sg24
I0
sbssg25
S'x\xc7\x8f\xf1\xd0\xd5\x88x\xefB\x0e"\x17xf\r'
p106
ssS'lib_python2_7_site-packages_django_utils_module_loading'
p107
(dp108
g6
(dp109
g8
S'lib_python2_7_site-packages_django_utils_module_loading.html'
p110
sg10
S'lib/python2.7/site-packages/django/utils/module_loading'
p111
sg12
g13
(g14
g15
NtRp112
(dp113
g18
I1
sg19
I0
sg20
I101
sg21
I0
sg22
I0
sg23
I36
sg24
I0
sbssg25
S'>~\x06|\x03~\xd2A\x0f\xc0{*\x1c\x117\x02'
p114
ssS'lib_python2_7_site-packages_django_core_serializers_json'
p115
(dp116
g6
(dp117
g8
S'lib_python2_7_site-packages_django_core_serializers_json.html'
p118
sg10
S'lib/python2.7/site-packages/django/core/serializers/json'
p119
sg12
g13
(g14
g15
NtRp120
(dp121
g18
I1
sg19
I0
sg20
I79
sg21
I0
sg22
I0
sg23
I38
sg24
I0
sbssg25
S'\xfe\x9a\xd87\x82\xa9\xb8\xd4\x94\xcc\x1b\x8e\tE\xd8\xdc'
p122
ssS'lib_python2_7_site-packages_django_utils_translation___init__'
p123
(dp124
g6
(dp125
g8
S'lib_python2_7_site-packages_django_utils_translation___init__.html'
p126
sg10
S'lib/python2.7/site-packages/django/utils/translation/__init__'
p127
sg12
g13
(g14
g15
NtRp128
(dp129
g18
I1
sg19
I0
sg20
I125
sg21
I0
sg22
I0
sg23
I51
sg24
I0
sbssg25
S'\xb6\xba97\x95`W\x82>\xb96Z\xf44nw'
p130
ssS'lib_python2_7_site-packages_django_utils_crypto'
p131
(dp132
g6
(dp133
g8
S'lib_python2_7_site-packages_django_utils_crypto.html'
p134
sg10
S'lib/python2.7/site-packages/django/utils/crypto'
p135
sg12
g13
(g14
g15
NtRp136
(dp137
g18
I1
sg19
I0
sg20
I87
sg21
I0
sg22
I0
sg23
I65
sg24
I0
sbssg25
S'\x81\x9f\x9dC#L\x8a)\tR\x83C(e\xfai'
p138
ssS'lib_python2_7_site-packages_django_core_serializers_base'
p139
(dp140
g6
(dp141
g8
S'lib_python2_7_site-packages_django_core_serializers_base.html'
p142
sg10
S'lib/python2.7/site-packages/django/core/serializers/base'
p143
sg12
g13
(g14
g15
NtRp144
(dp145
g18
I1
sg19
I0
sg20
I90
sg21
I0
sg22
I0
sg23
I33
sg24
I0
sbssg25
S"'\xba\n\xf9\x0c\xe7?\xaaD\xff\xb7M\xc2\xbf\x19\xb4"
p146
ssS'lib_python2_7_site-packages_django_utils_inspect'
p147
(dp148
g6
(dp149
g8
S'lib_python2_7_site-packages_django_utils_inspect.html'
p150
sg10
S'lib/python2.7/site-packages/django/utils/inspect'
p151
sg12
g13
(g14
g15
NtRp152
(dp153
g18
I1
sg19
I0
sg20
I40
sg21
I0
sg22
I0
sg23
I25
sg24
I0
sbssg25
S'6\xbfB\x1a\xc30!}\x07\x05\x1a4|\xc3n\xd7'
p154
ssS'lib_python2_7_site-packages_django_utils_autoreload'
p155
(dp156
g6
(dp157
g8
S'lib_python2_7_site-packages_django_utils_autoreload.html'
p158
sg10
S'lib/python2.7/site-packages/django/utils/autoreload'
p159
sg12
g13
(g14
g15
NtRp160
(dp161
g18
I1
sg19
I0
sg20
I204
sg21
I0
sg22
I0
sg23
I161
sg24
I0
sbssg25
S'dV\x86\x84KKR\x91\xbf\xc9*\x06Q\xa2kU'
p162
ssS'lib_python2_7_site-packages_django_core_exceptions'
p163
(dp164
g6
(dp165
g8
S'lib_python2_7_site-packages_django_core_exceptions.html'
p166
sg10
S'lib/python2.7/site-packages/django/core/exceptions'
p167
sg12
g13
(g14
g15
NtRp168
(dp169
g18
I1
sg19
I0
sg20
I87
sg21
I0
sg22
I0
sg23
I47
sg24
I0
sbssg25
S'l)\xd6\x7f\xb6\xa2\xac\x99bw\xe4\x07\xf8-/\xf4'
p170
ssS'lib_python2_7_site-packages_bootstrap3___init__'
p171
(dp172
g6
(dp173
g8
S'lib_python2_7_site-packages_bootstrap3___init__.html'
p174
sg10
S'lib/python2.7/site-packages/bootstrap3/__init__'
p175
sg12
g13
(g14
g15
NtRp176
(dp177
g18
I1
sg19
I0
sg20
I1
sg21
I0
sg22
I0
sg23
I0
sg24
I0
sbssg25
S'\x8ev$\xa6 \xd9A\xb0\xfeWql\xc0\x8c/\xbd'
p178
ssS'lib_python2_7_site-packages_django_db_migrations_operations_special'
p179
(dp180
g6
(dp181
g8
S'lib_python2_7_site-packages_django_db_migrations_operations_special.html'
p182
sg10
S'lib/python2.7/site-packages/django/db/migrations/operations/special'
p183
sg12
g13
(g14
g15
NtRp184
(dp185
g18
I1
sg19
I0
sg20
I118
sg21
I0
sg22
I0
sg23
I76
sg24
I0
sbssg25
S'\x93&^\x1d\xf5C\x84\xe3y\x07\xbe\x05L\x16\x1c\xc8'
p186
ssS'lib_python2_7_site-packages_django_contrib_contenttypes___init__'
p187
(dp188
g6
(dp189
g8
S'lib_python2_7_site-packages_django_contrib_contenttypes___init__.html'
p190
sg10
S'lib/python2.7/site-packages/django/contrib/contenttypes/__init__'
p191
sg12
g13
(g14
g15
NtRp192
(dp193
g18
I1
sg19
I0
sg20
I1
sg21
I0
sg22
I0
sg23
I0
sg24
I0
sbssg25
S'<\x90\xfeqB1~\xf9\x95\xabK \x85\xa712'
p194
ssS'lib_python2_7_site-packages_django_db_models_sql_where'
p195
(dp196
g6
(dp197
g8
S'lib_python2_7_site-packages_django_db_models_sql_where.html'
p198
sg10
S'lib/python2.7/site-packages/django/db/models/sql/where'
p199
sg12
g13
(g14
g15
NtRp200
(dp201
g18
I1
sg19
I0
sg20
I247
sg21
I0
sg22
I0
sg23
I161
sg24
I0
sbssg25
S'k\xc9\x00\x0cg\xac\x91\xadx\xdd(\xc2\xa9\xf2\xee\xc2'
p202
ssS'lib_python2_7_site-packages_django_contrib_admin_utils'
p203
(dp204
g6
(dp205
g8
S'lib_python2_7_site-packages_django_contrib_admin_utils.html'
p206
sg10
S'lib/python2.7/site-packages/django/contrib/admin/utils'
p207
sg12
g13
(g14
g15
NtRp208
(dp209
g18
I1
sg19
I0
sg20
I298
sg21
I0
sg22
I0
sg23
I240
sg24
I0
sbssg25
S'\x8c\xb9i\xd1\x0eQ\xc0\xcb\x879\xc5\x03\xf6@\x84\xb2'
p210
ssS'lib_python2_7_site-packages_django_db_backends_base_client'
p211
(dp212
g6
(dp213
g8
S'lib_python2_7_site-packages_django_db_backends_base_client.html'
p214
sg10
S'lib/python2.7/site-packages/django/db/backends/base/client'
p215
sg12
g13
(g14
g15
NtRp216
(dp217
g18
I1
sg19
I0
sg20
I6
sg21
I0
sg22
I0
sg23
I1
sg24
I0
sbssg25
S'\xa0\x98\x02\x83\xe4p\x9ckH\xec;\x10\xbfk\x0eM'
p218
ssS'lib_python2_7_site-packages_django_core_validators'
p219
(dp220
g6
(dp221
g8
S'lib_python2_7_site-packages_django_core_validators.html'
p222
sg10
S'lib/python2.7/site-packages/django/core/validators'
p223
sg12
g13
(g14
g15
NtRp224
(dp225
g18
I1
sg19
I0
sg20
I192
sg21
I0
sg22
I0
sg23
I83
sg24
I0
sbssg25
S"\xb9'\x97N\xc3\xac\xf82\xf4?\x96;:\x02\xfd\xe2"
p226
ssS'wardens_migrations_0007_auto_20160728_1254'
p227
(dp228
g6
(dp229
g8
S'wardens_migrations_0007_auto_20160728_1254.html'
p230
sg10
S'wardens/migrations/0007_auto_20160728_1254'
p231
sg12
g13
(g14
g15
NtRp232
(dp233
g18
I1
sg19
I0
sg20
I5
sg21
I0
sg22
I0
sg23
I0
sg24
I0
sbssg25
S'}(\xcc\xd6\xf2\x14\xb1@\xa2Kj\x8a\x0b\xee?D'
p234
ssS'lib_python2_7_site-packages_django_conf_locale___init__'
p235
(dp236
g6
(dp237
g8
S'lib_python2_7_site-packages_django_conf_locale___init__.html'
p238
sg10
S'lib/python2.7/site-packages/django/conf/locale/__init__'
p239
sg12
g13
(g14
g15
NtRp240
(dp241
g18
I1
sg19
I0
sg20
I2
sg21
I0
sg22
I0
sg23
I0
sg24
I0
sbssg25
S'7\xc1\xd1QPC\x97\x8eT\xdb\xfbt\xbby&\x8f'
p242
ssS'lib_python2_7_site-packages_django_utils_translation_trans_real'
p243
(dp244
g6
(dp245
g8
S'lib_python2_7_site-packages_django_utils_translation_trans_real.html'
p246
sg10
S'lib/python2.7/site-packages/django/utils/translation/trans_real'
p247
sg12
g13
(g14
g15
NtRp248
(dp249
g18
I1
sg19
I0
sg20
I424
sg21
I0
sg22
I0
sg23
I280
sg24
I0
sbssg25
S'%\xae\xa2\xc8\xab4\x0c|\xe9\x9fP\xbayt\x83e'
p250
ssS'lib_python2_7_site-packages_django_utils_duration'
p251
(dp252
g6
(dp253
g8
S'lib_python2_7_site-packages_django_utils_duration.html'
p254
sg10
S'lib/python2.7/site-packages/django/utils/duration'
p255
sg12
g13
(g14
g15
NtRp256
(dp257
g18
I1
sg19
I0
sg20
I14
sg21
I0
sg22
I0
sg23
I13
sg24
I0
sbssg25
S'\x01\xbc\xbdK"\xe9/\xb4\xe2\xe8\x04\x86P$>\xc4'
p258
ssS'lib_python2_7_site-packages_django_contrib_sessions_apps'
p259
(dp260
g6
(dp261
g8
S'lib_python2_7_site-packages_django_contrib_sessions_apps.html'
p262
sg10
S'lib/python2.7/site-packages/django/contrib/sessions/apps'
p263
sg12
g13
(g14
g15
NtRp264
(dp265
g18
I1
sg19
I0
sg20
I5
sg21
I0
sg22
I0
sg23
I0
sg24
I0
sbssg25
S'\x05\x9d\x1d\x1f5`\xe4\xa6\x9cMS\xb8\x96*r\x04'
p266
ssS'lib_python2_7_site-packages_django_core_cache_backends_base'
p267
(dp268
g6
(dp269
g8
S'lib_python2_7_site-packages_django_core_cache_backends_base.html'
p270
sg10
S'lib/python2.7/site-packages/django/core/cache/backends/base'
p271
sg12
g13
(g14
g15
NtRp272
(dp273
g18
I1
sg19
I0
sg20
I108
sg21
I0
sg22
I0
sg23
I58
sg24
I0
sbssg25
S'\n\xda\xf4\x960z)\x056\xca\xb1\xf1\x1c\x00\xaf*'
p274
ssS'lib_python2_7_site-packages_django_utils_html_parser'
p275
(dp276
g6
(dp277
g8
S'lib_python2_7_site-packages_django_utils_html_parser.html'
p278
sg10
S'lib/python2.7/site-packages/django/utils/html_parser'
p279
sg12
g13
(g14
g15
NtRp280
(dp281
g18
I1
sg19
I0
sg20
I90
sg21
I0
sg22
I0
sg23
I80
sg24
I0
sbssg25
S'r\xa1\x9d\xc4\xe6b\xc2\x8d5\xcbg\xc7\xb3\xfc\xb7\xcd'
p282
ssS'lib_python2_7_site-packages_django_db_models_options'
p283
(dp284
g6
(dp285
g8
S'lib_python2_7_site-packages_django_db_models_options.html'
p286
sg10
S'lib/python2.7/site-packages/django/db/models/options'
p287
sg12
g13
(g14
g15
NtRp288
(dp289
g18
I1
sg19
I0
sg20
I387
sg21
I0
sg22
I0
sg23
I107
sg24
I0
sbssg25
S'\x05-\xc3\x809G\xe4\xf9\x86"\x9e\xec\xd5\xe3\xcc\xa5'
p290
ssS'lib_python2_7_site-packages_django_db_models_fields_files'
p291
(dp292
g6
(dp293
g8
S'lib_python2_7_site-packages_django_db_models_fields_files.html'
p294
sg10
S'lib/python2.7/site-packages/django/db/models/fields/files'
p295
sg12
g13
(g14
g15
NtRp296
(dp297
g18
I1
sg19
I0
sg20
I252
sg21
I0
sg22
I0
sg23
I173
sg24
I0
sbssg25
S'\x8bH\x19\xf6S\xe4\xf2.m^Y\x95\x9c\xd9)\x9b'
p298
ssS'wardens_migrations_0004_auto_20160728_1241'
p299
(dp300
g6
(dp301
g8
S'wardens_migrations_0004_auto_20160728_1241.html'
p302
sg10
S'wardens/migrations/0004_auto_20160728_1241'
p303
sg12
g13
(g14
g15
NtRp304
(dp305
g18
I1
sg19
I0
sg20
I5
sg21
I0
sg22
I0
sg23
I0
sg24
I0
sbssg25
S'\x16<+t\xa8\x1fR\x0e5\xb1@rB\\\xe3\x13'
p306
ssS'lib_python2_7_site-packages_django_contrib_admin_filters'
p307
(dp308
g6
(dp309
g8
S'lib_python2_7_site-packages_django_contrib_admin_filters.html'
p310
sg10
S'lib/python2.7/site-packages/django/contrib/admin/filters'
p311
sg12
g13
(g14
g15
NtRp312
(dp313
g18
I1
sg19
I0
sg20
I197
sg21
I0
sg22
I0
sg23
I132
sg24
I0
sbssg25
S'\x07\xc4\x16cW\xb2\xdc?\x06\xe62\xa2\xad\x04y7'
p314
ssS'lib_python2_7_site-packages_django_template_loaders___init__'
p315
(dp316
g6
(dp317
g8
S'lib_python2_7_site-packages_django_template_loaders___init__.html'
p318
sg10
S'lib/python2.7/site-packages/django/template/loaders/__init__'
p319
sg12
g13
(g14
g15
NtRp320
(dp321
g18
I1
sg19
I0
sg20
I0
sg21
I0
sg22
I0
sg23
I0
sg24
I0
sbssg25
S'\xb0\xc8pN\xaf>\xa0\xbaz\x144\xe0A9\xb8?'
p322
ssS'lib_python2_7_site-packages_django_core_servers___init__'
p323
(dp324
g6
(dp325
g8
S'lib_python2_7_site-packages_django_core_servers___init__.html'
p326
sg10
S'lib/python2.7/site-packages/django/core/servers/__init__'
p327
sg12
g13
(g14
g15
NtRp328
(dp329
g18
I1
sg19
I0
sg20
I0
sg21
I0
sg22
I0
sg23
I0
sg24
I0
sbssg25
S'\xb0\xc8pN\xaf>\xa0\xbaz\x144\xe0A9\xb8?'
p330
ssS'lib_python2_7_site-packages_django_db_backends___init__'
p331
(dp332
g6
(dp333
g8
S'lib_python2_7_site-packages_django_db_backends___init__.html'
p334
sg10
S'lib/python2.7/site-packages/django/db/backends/__init__'
p335
sg12
g13
(g14
g15
NtRp336
(dp337
g18
I1
sg19
I0
sg20
I0
sg21
I0
sg22
I0
sg23
I0
sg24
I0
sbssg25
S'\xb0\xc8pN\xaf>\xa0\xbaz\x144\xe0A9\xb8?'
p338
ssS'lib_python2_7_site-packages_django_template_loaders_locmem'
p339
(dp340
g6
(dp341
g8
S'lib_python2_7_site-packages_django_template_loaders_locmem.html'
p342
sg10
S'lib/python2.7/site-packages/django/template/loaders/locmem'
p343
sg12
g13
(g14
g15
NtRp344
(dp345
g18
I1
sg19
I0
sg20
I12
sg21
I0
sg22
I0
sg23
I6
sg24
I0
sbssg25
S'\xc4\xb1\x08*\x9ftj\x16\xa6 \x97X\xe4\xb7!d'
p346
ssS'lib_python2_7_site-packages_django_http_utils'
p347
(dp348
g6
(dp349
g8
S'lib_python2_7_site-packages_django_http_utils.html'
p350
sg10
S'lib/python2.7/site-packages/django/http/utils'
p351
sg12
g13
(g14
g15
NtRp352
(dp353
g18
I1
sg19
I0
sg20
I15
sg21
I0
sg22
I0
sg23
I13
sg24
I0
sbssg25
S'u\x05\xcf\xe7"5w\x89`2bY\xcc\xfc\xd1\x83'
p354
ssS'lib_python2_7_site-packages_django_db_migrations_state'
p355
(dp356
g6
(dp357
g8
S'lib_python2_7_site-packages_django_db_migrations_state.html'
p358
sg10
S'lib/python2.7/site-packages/django/db/migrations/state'
p359
sg12
g13
(g14
g15
NtRp360
(dp361
g18
I1
sg19
I0
sg20
I310
sg21
I0
sg22
I0
sg23
I132
sg24
I0
sbssg25
S'+\xea\xc9\xd0\x10on\x96\x9f\xd3\x87A\x17~\x06\x84'
p362
ssS'lib_python2_7_site-packages_django_db_models_expressions'
p363
(dp364
g6
(dp365
g8
S'lib_python2_7_site-packages_django_db_models_expressions.html'
p366
sg10
S'lib/python2.7/site-packages/django/db/models/expressions'
p367
sg12
g13
(g14
g15
NtRp368
(dp369
g18
I1
sg19
I0
sg20
I589
sg21
I0
sg22
I0
sg23
I364
sg24
I0
sbssg25
S'6M\xf4\x0fe\xd4>\x93\x12-\xa8Z\x9d\xaa\x85\xf2'
p370
ssS'lib_python2_7_site-packages_django_core_management_commands_createcachetable'
p371
(dp372
g6
(dp373
g8
S'lib_python2_7_site-packages_django_core_management_commands_createcachetable.html'
p374
sg10
S'lib/python2.7/site-packages/django/core/management/commands/createcachetable'
p375
sg12
g13
(g14
g15
NtRp376
(dp377
g18
I1
sg19
I0
sg20
I61
sg21
I0
sg22
I0
sg23
I40
sg24
I0
sbssg25
S'\x1c\xd8%Ap\x1d0\xb7P\xfe\xba=\xadkG\x13'
p378
ssS'lib_python2_7_site-packages_django_core_files_temp'
p379
(dp380
g6
(dp381
g8
S'lib_python2_7_site-packages_django_core_files_temp.html'
p382
sg10
S'lib/python2.7/site-packages/django/core/files/temp'
p383
sg12
g13
(g14
g15
NtRp384
(dp385
g18
I1
sg19
I0
sg20
I35
sg21
I0
sg22
I0
sg23
I28
sg24
I0
sbssg25
S'v\x82\x8b\xae\x03\t\xaa;\x0c\xa0\x1e\xa0.\xb9\xac='
p386
ssS'lib_python2_7_site-packages_django_core_checks_compatibility___init__'
p387
(dp388
g6
(dp389
g8
S'lib_python2_7_site-packages_django_core_checks_compatibility___init__.html'
p390
sg10
S'lib/python2.7/site-packages/django/core/checks/compatibility/__init__'
p391
sg12
g13
(g14
g15
NtRp392
(dp393
g18
I1
sg19
I0
sg20
I0
sg21
I0
sg22
I0
sg23
I0
sg24
I0
sbssg25
S'\xb0\xc8pN\xaf>\xa0\xbaz\x144\xe0A9\xb8?'
p394
ssS'lib_python2_7_site-packages_django_db_models_sql_datastructures'
p395
(dp396
g6
(dp397
g8
S'lib_python2_7_site-packages_django_db_models_sql_datastructures.html'
p398
sg10
S'lib/python2.7/site-packages/django/db/models/sql/datastructures'
p399
sg12
g13
(g14
g15
NtRp400
(dp401
g18
I1
sg19
I0
sg20
I65
sg21
I0
sg22
I0
sg23
I17
sg24
I0
sbssg25
S'\xb2\xfa\xb4\x13|r\xf8\xb9\xd0w\xb6\x9f\x9e\x9b\xb0\xee'
p402
ssS'lib_python2_7_site-packages_django_contrib_sessions_migrations___init__'
p403
(dp404
g6
(dp405
g8
S'lib_python2_7_site-packages_django_contrib_sessions_migrations___init__.html'
p406
sg10
S'lib/python2.7/site-packages/django/contrib/sessions/migrations/__init__'
p407
sg12
g13
(g14
g15
NtRp408
(dp409
g18
I1
sg19
I0
sg20
I0
sg21
I0
sg22
I0
sg23
I0
sg24
I0
sbssg25
S'\xb0\xc8pN\xaf>\xa0\xbaz\x144\xe0A9\xb8?'
p410
ssS'lib_python2_7_site-packages_django_template_response'
p411
(dp412
g6
(dp413
g8
S'lib_python2_7_site-packages_django_template_response.html'
p414
sg10
S'lib/python2.7/site-packages/django/template/response'
p415
sg12
g13
(g14
g15
NtRp416
(dp417
g18
I1
sg19
I0
sg20
I90
sg21
I0
sg22
I0
sg23
I63
sg24
I0
sbssg25
S'\x91\x80>`}<mzn\x112\x8e\xc2\xa1a\x11'
p418
ssS'lib_python2_7_site-packages_django_core_serializers_xml_serializer'
p419
(dp420
g6
(dp421
g8
S'lib_python2_7_site-packages_django_core_serializers_xml_serializer.html'
p422
sg10
S'lib/python2.7/site-packages/django/core/serializers/xml_serializer'
p423
sg12
g13
(g14
g15
NtRp424
(dp425
g18
I1
sg19
I0
sg20
I212
sg21
I0
sg22
I0
sg23
I165
sg24
I0
sbssg25
S'Z\x03F\x9a\xd2\xe9\x19!\x19Cs\x7f\xd6\xca\xfa\x95'
p426
ssS'lib_python2_7_site-packages_django_utils_six'
p427
(dp428
g6
(dp429
g8
S'lib_python2_7_site-packages_django_utils_six.html'
p430
sg10
S'lib/python2.7/site-packages/django/utils/six'
p431
sg12
g13
(g14
g15
NtRp432
(dp433
g18
I1
sg19
I0
sg20
I451
sg21
I0
sg22
I0
sg23
I204
sg24
I0
sbssg25
S'^\r\xc26\xaanS\x16\xc5\xa0\xc1\xae\x19\xc3\x91\xc6'
p434
ssS'lib_python2_7_site-packages_django_utils_deprecation'
p435
(dp436
g6
(dp437
g8
S'lib_python2_7_site-packages_django_utils_deprecation.html'
p438
sg10
S'lib/python2.7/site-packages/django/utils/deprecation'
p439
sg12
g13
(g14
g15
NtRp440
(dp441
g18
I1
sg19
I0
sg20
I40
sg21
I0
sg22
I0
sg23
I5
sg24
I0
sbssg25
S'\x8fa\x9d\xd8\xa7\xdb~W\xeeL\xf6\xe9WEPj'
p442
ssS'lib_python2_7_site-packages_django_contrib_auth_forms'
p443
(dp444
g6
(dp445
g8
S'lib_python2_7_site-packages_django_contrib_auth_forms.html'
p446
sg10
S'lib/python2.7/site-packages/django/contrib/auth/forms'
p447
sg12
g13
(g14
g15
NtRp448
(dp449
g18
I1
sg19
I0
sg20
I178
sg21
I0
sg22
I0
sg23
I100
sg24
I0
sbssg25
S'W\xd1\xa9\xe5\xfcC\xca\x14\x0cT\x05\xac5BP\x91'
p450
ssS'lib_python2_7_site-packages_django_db_models_sql_compiler'
p451
(dp452
g6
(dp453
g8
S'lib_python2_7_site-packages_django_db_models_sql_compiler.html'
p454
sg10
S'lib/python2.7/site-packages/django/db/models/sql/compiler'
p455
sg12
g13
(g14
g15
NtRp456
(dp457
g18
I1
sg19
I0
sg20
I647
sg21
I0
sg22
I0
sg23
I345
sg24
I0
sbssg25
S']\x93\xe9.*z\x00\xd9\xbbp\xe8\xe20\xdbyg'
p458
ssS'lib_python2_7_site-packages_django_contrib_staticfiles_management___init__'
p459
(dp460
g6
(dp461
g8
S'lib_python2_7_site-packages_django_contrib_staticfiles_management___init__.html'
p462
sg10
S'lib/python2.7/site-packages/django/contrib/staticfiles/management/__init__'
p463
sg12
g13
(g14
g15
NtRp464
(dp465
g18
I1
sg19
I0
sg20
I0
sg21
I0
sg22
I0
sg23
I0
sg24
I0
sbssg25
S'\xb0\xc8pN\xaf>\xa0\xbaz\x144\xe0A9\xb8?'
p466
ssS'lib_python2_7_site-packages_django_template_engine'
p467
(dp468
g6
(dp469
g8
S'lib_python2_7_site-packages_django_template_engine.html'
p470
sg10
S'lib/python2.7/site-packages/django/template/engine'
p471
sg12
g13
(g14
g15
NtRp472
(dp473
g18
I1
sg19
I0
sg20
I144
sg21
I0
sg22
I0
sg23
I100
sg24
I0
sbssg25
S'\xb6\xe4]`\x1e\xd0\xc1\x98K\xe8\x1e\x9a\xac%\xd6\x95'
p474
ssS'lib_python2_7_site-packages_django_apps_registry'
p475
(dp476
g6
(dp477
g8
S'lib_python2_7_site-packages_django_apps_registry.html'
p478
sg10
S'lib/python2.7/site-packages/django/apps/registry'
p479
sg12
g13
(g14
g15
NtRp480
(dp481
g18
I1
sg19
I0
sg20
I186
sg21
I0
sg22
I0
sg23
I75
sg24
I0
sbssg25
S'H\x82\xd0\x99\x80@T\xa5L\x83\x82[\x1f\x1c?\x18'
p482
ssS'lib_python2_7_site-packages_django_utils_xmlutils'
p483
(dp484
g6
(dp485
g8
S'lib_python2_7_site-packages_django_utils_xmlutils.html'
p486
sg10
S'lib/python2.7/site-packages/django/utils/xmlutils'
p487
sg12
g13
(g14
g15
NtRp488
(dp489
g18
I1
sg19
I0
sg20
I9
sg21
I0
sg22
I0
sg23
I6
sg24
I0
sbssg25
S'Z;\r+O\xda\xbe\xfb\xa0\xed9\x1c)\x1fW\xa6'
p490
ssS'lib_python2_7_site-packages_django_contrib_contenttypes_migrations___init__'
p491
(dp492
g6
(dp493
g8
S'lib_python2_7_site-packages_django_contrib_contenttypes_migrations___init__.html'
p494
sg10
S'lib/python2.7/site-packages/django/contrib/contenttypes/migrations/__init__'
p495
sg12
g13
(g14
g15
NtRp496
(dp497
g18
I1
sg19
I0
sg20
I0
sg21
I0
sg22
I0
sg23
I0
sg24
I0
sbssg25
S'\xb0\xc8pN\xaf>\xa0\xbaz\x144\xe0A9\xb8?'
p498
ssS'lib_python2_7_site-packages_django_conf_urls___init__'
p499
(dp500
g6
(dp501
g8
S'lib_python2_7_site-packages_django_conf_urls___init__.html'
p502
sg10
S'lib/python2.7/site-packages/django/conf/urls/__init__'
p503
sg12
g13
(g14
g15
NtRp504
(dp505
g18
I1
sg19
I0
sg20
I48
sg21
I0
sg22
I0
sg23
I34
sg24
I0
sbssg25
S'ZA\xcc\x92w\x11\xd0\xc3\xad\x98?\x18\xc4\xb6\xee\x9d'
p506
ssS'lib_python2_7_site-packages_django_db_backends_base_base'
p507
(dp508
g6
(dp509
g8
S'lib_python2_7_site-packages_django_db_backends_base_base.html'
p510
sg10
S'lib/python2.7/site-packages/django/db/backends/base/base'
p511
sg12
g13
(g14
g15
NtRp512
(dp513
g18
I1
sg19
I0
sg20
I225
sg21
I0
sg22
I0
sg23
I87
sg24
I0
sbssg25
S'\xc7\xd2^A\xc6\xdb\x07\xb5\x9aO2&\xde\x97(b'
p514
ssS'lib_python2_7_site-packages_django_contrib_admin_decorators'
p515
(dp516
g6
(dp517
g8
S'lib_python2_7_site-packages_django_contrib_admin_decorators.html'
p518
sg10
S'lib/python2.7/site-packages/django/contrib/admin/decorators'
p519
sg12
g13
(g14
g15
NtRp520
(dp521
g18
I1
sg19
I0
sg20
I12
sg21
I0
sg22
I0
sg23
I11
sg24
I0
sbssg25
S'\xedELQ\xae\x96\xa0\xb9n\xf1i\xf2`36\xe3'
p522
ssS'lib_python2_7_site-packages_django_contrib_admin_migrations___init__'
p523
(dp524
g6
(dp525
g8
S'lib_python2_7_site-packages_django_contrib_admin_migrations___init__.html'
p526
sg10
S'lib/python2.7/site-packages/django/contrib/admin/migrations/__init__'
p527
sg12
g13
(g14
g15
NtRp528
(dp529
g18
I1
sg19
I0
sg20
I0
sg21
I0
sg22
I0
sg23
I0
sg24
I0
sbssg25
S'\xb0\xc8pN\xaf>\xa0\xbaz\x144\xe0A9\xb8?'
p530
ssS'lib_python2_7_site-packages_django_http_cookie'
p531
(dp532
g6
(dp533
g8
S'lib_python2_7_site-packages_django_http_cookie.html'
p534
sg10
S'lib/python2.7/site-packages/django/http/cookie'
p535
sg12
g13
(g14
g15
NtRp536
(dp537
g18
I1
sg19
I0
sg20
I62
sg21
I0
sg22
I0
sg23
I41
sg24
I0
sbssg25
S'f\xb6\x8fw\xe3B#}\xec\xac\xfd\x19\x11`\x12j'
p538
ssS'lib_python2_7_site-packages_django_utils_synch'
p539
(dp540
g6
(dp541
g8
S'lib_python2_7_site-packages_django_utils_synch.html'
p542
sg10
S'lib/python2.7/site-packages/django/utils/synch'
p543
sg12
g13
(g14
g15
NtRp544
(dp545
g18
I1
sg19
I0
sg20
I56
sg21
I0
sg22
I0
sg23
I39
sg24
I0
sbssg25
S'q\x15\xbaJ\x98\x10\xc7\x84;t+\x83\x7fX>\xd6'
p546
ssS'lib_python2_7_site-packages_django_http___init__'
p547
(dp548
g6
(dp549
g8
S'lib_python2_7_site-packages_django_http___init__.html'
p550
sg10
S'lib/python2.7/site-packages/django/http/__init__'
p551
sg12
g13
(g14
g15
NtRp552
(dp553
g18
I1
sg19
I0
sg20
I5
sg21
I0
sg22
I0
sg23
I0
sg24
I0
sbssg25
S'\xf9T\x14\x9e`\xa7\xec\xc3\x08\xf0q\xadCJJC'
p554
ssS'wardens_migrations_0008_auto_20160728_1255'
p555
(dp556
g6
(dp557
g8
S'wardens_migrations_0008_auto_20160728_1255.html'
p558
sg10
S'wardens/migrations/0008_auto_20160728_1255'
p559
sg12
g13
(g14
g15
NtRp560
(dp561
g18
I1
sg19
I0
sg20
I5
sg21
I0
sg22
I0
sg23
I0
sg24
I0
sbssg25
S'\x97:\x1d[\xfe\xfag\xdc\xd7\xf3P\x1ea\xc7[\x81'
p562
ssS'lib_python2_7_site-packages_django_db_backends_sqlite3_utils'
p563
(dp564
g6
(dp565
g8
S'lib_python2_7_site-packages_django_db_backends_sqlite3_utils.html'
p566
sg10
S'lib/python2.7/site-packages/django/db/backends/sqlite3/utils'
p567
sg12
g13
(g14
g15
NtRp568
(dp569
g18
I1
sg19
I0
sg20
I8
sg21
I0
sg22
I0
sg23
I4
sg24
I0
sbssg25
S'\x12\x0e1K\x8f\xb2>#&\xdf4]\xa0\xb0\xb4\x83'
p570
ssS'lib_python2_7_site-packages_django_utils_http'
p571
(dp572
g6
(dp573
g8
S'lib_python2_7_site-packages_django_utils_http.html'
p574
sg10
S'lib/python2.7/site-packages/django/utils/http'
p575
sg12
g13
(g14
g15
NtRp576
(dp577
g18
I1
sg19
I0
sg20
I144
sg21
I0
sg22
I0
sg23
I94
sg24
I0
sbssg25
S'\xed\x1a\x12\xb5\xb6mK\xe9}_\xc9\x97<\xe6ZA'
p578
ssS'lib_python2_7_site-packages_django_core___init__'
p579
(dp580
g6
(dp581
g8
S'lib_python2_7_site-packages_django_core___init__.html'
p582
sg10
S'lib/python2.7/site-packages/django/core/__init__'
p583
sg12
g13
(g14
g15
NtRp584
(dp585
g18
I1
sg19
I0
sg20
I0
sg21
I0
sg22
I0
sg23
I0
sg24
I0
sbssg25
S'\xb0\xc8pN\xaf>\xa0\xbaz\x144\xe0A9\xb8?'
p586
ssS'lib_python2_7_site-packages_django_core_management_commands_migrate'
p587
(dp588
g6
(dp589
g8
S'lib_python2_7_site-packages_django_core_management_commands_migrate.html'
p590
sg10
S'lib/python2.7/site-packages/django/core/management/commands/migrate'
p591
sg12
g13
(g14
g15
NtRp592
(dp593
g18
I1
sg19
I0
sg20
I198
sg21
I0
sg22
I0
sg23
I76
sg24
I0
sbssg25
S'\x83$\xd4u\xe5\x0e\xb7\xd3\x96&m[\xd1Y\xe3Q'
p594
ssS'lib_python2_7_site-packages_django_template_utils'
p595
(dp596
g6
(dp597
g8
S'lib_python2_7_site-packages_django_template_utils.html'
p598
sg10
S'lib/python2.7/site-packages/django/template/utils'
p599
sg12
g13
(g14
g15
NtRp600
(dp601
g18
I1
sg19
I0
sg20
I70
sg21
I0
sg22
I0
sg23
I48
sg24
I0
sbssg25
S"\xb1I:\x0c@\x98\xcc!\nI\x87\x83y\xf7'\x10"
p602
ssS'lib_python2_7_site-packages_django_db_migrations_recorder'
p603
(dp604
g6
(dp605
g8
S'lib_python2_7_site-packages_django_db_migrations_recorder.html'
p606
sg10
S'lib/python2.7/site-packages/django/db/migrations/recorder'
p607
sg12
g13
(g14
g15
NtRp608
(dp609
g18
I1
sg19
I0
sg20
I37
sg21
I0
sg22
I0
sg23
I4
sg24
I0
sbssg25
S'\x82\xce\xe8:\xf44^\xc0\xd1o\x1b\xfeGi\xdc\x92'
p610
ssS'lib_python2_7_site-packages_django_forms_fields'
p611
(dp612
g6
(dp613
g8
S'lib_python2_7_site-packages_django_forms_fields.html'
p614
sg10
S'lib/python2.7/site-packages/django/forms/fields'
p615
sg12
g13
(g14
g15
NtRp616
(dp617
g18
I1
sg19
I0
sg20
I723
sg21
I0
sg22
I0
sg23
I493
sg24
I0
sbssg25
S'h\x81\xb7\xfe\x8c(\xa0\xb27\x8eJ\xbf\xca\x1c,\x10'
p618
ssS'lib_python2_7_site-packages_django_core_serializers___init__'
p619
(dp620
g6
(dp621
g8
S'lib_python2_7_site-packages_django_core_serializers___init__.html'
p622
sg10
S'lib/python2.7/site-packages/django/core/serializers/__init__'
p623
sg12
g13
(g14
g15
NtRp624
(dp625
g18
I1
sg19
I0
sg20
I108
sg21
I0
sg22
I0
sg23
I23
sg24
I0
sbssg25
S'\x1a\xef\x93\x89\x1f\xd9=\xb0x\x92t..,*h'
p626
ssS'lib_python2_7_site-packages_django_utils_dates'
p627
(dp628
g6
(dp629
g8
S'lib_python2_7_site-packages_django_utils_dates.html'
p630
sg10
S'lib/python2.7/site-packages/django/utils/dates'
p631
sg12
g13
(g14
g15
NtRp632
(dp633
g18
I1
sg19
I0
sg20
I9
sg21
I0
sg22
I0
sg23
I0
sg24
I0
sbssg25
S'i\xc6\xb6\xe1ye0}\x15\xda\xc4\x1a)\xda\x8e|'
p634
ssS'lib_python2_7_site-packages_bootstrap3_models'
p635
(dp636
g6
(dp637
g8
S'lib_python2_7_site-packages_bootstrap3_models.html'
p638
sg10
S'lib/python2.7/site-packages/bootstrap3/models'
p639
sg12
g13
(g14
g15
NtRp640
(dp641
g18
I1
sg19
I0
sg20
I0
sg21
I0
sg22
I0
sg23
I0
sg24
I0
sbssg25
S',\xc3\xd3c65d:<\xac\x08\xd3\xb6\x0fn<'
p642
ssS'lib_python2_7_site-packages_django_utils_dateparse'
p643
(dp644
g6
(dp645
g8
S'lib_python2_7_site-packages_django_utils_dateparse.html'
p646
sg10
S'lib/python2.7/site-packages/django/utils/dateparse'
p647
sg12
g13
(g14
g15
NtRp648
(dp649
g18
I1
sg19
I0
sg20
I50
sg21
I0
sg22
I0
sg23
I37
sg24
I0
sbssg25
S' +\xd5_\xcd\x10\x9e\xad\xd6\x98\xfa\xdc\x97E\xdeF'
p650
ssS'lib_python2_7_site-packages_django_utils_functional'
p651
(dp652
g6
(dp653
g8
S'lib_python2_7_site-packages_django_utils_functional.html'
p654
sg10
S'lib/python2.7/site-packages/django/utils/functional'
p655
sg12
g13
(g14
g15
NtRp656
(dp657
g18
I1
sg19
I0
sg20
I237
sg21
I0
sg22
I0
sg23
I109
sg24
I0
sbssg25
S'\xda\x86d\x1e\xd3XWt\x9f*\x89,YA\xe8\xf2'
p658
ssS'lib_python2_7_site-packages_django_contrib___init__'
p659
(dp660
g6
(dp661
g8
S'lib_python2_7_site-packages_django_contrib___init__.html'
p662
sg10
S'lib/python2.7/site-packages/django/contrib/__init__'
p663
sg12
g13
(g14
g15
NtRp664
(dp665
g18
I1
sg19
I0
sg20
I0
sg21
I0
sg22
I0
sg23
I0
sg24
I0
sbssg25
S'\xb0\xc8pN\xaf>\xa0\xbaz\x144\xe0A9\xb8?'
p666
ssS'lib_python2_7_site-packages_django_core_signals'
p667
(dp668
g6
(dp669
g8
S'lib_python2_7_site-packages_django_core_signals.html'
p670
sg10
S'lib/python2.7/site-packages/django/core/signals'
p671
sg12
g13
(g14
g15
NtRp672
(dp673
g18
I1
sg19
I0
sg20
I5
sg21
I0
sg22
I0
sg23
I0
sg24
I0
sbssg25
S'-\xb9\x0flq[h\xa6&=n\xf9]=\xa1j'
p674
ssS'lib_python2_7_site-packages_django_contrib_sessions_backends_base'
p675
(dp676
g6
(dp677
g8
S'lib_python2_7_site-packages_django_contrib_sessions_backends_base.html'
p678
sg10
S'lib/python2.7/site-packages/django/contrib/sessions/backends/base'
p679
sg12
g13
(g14
g15
NtRp680
(dp681
g18
I1
sg19
I0
sg20
I184
sg21
I0
sg22
I0
sg23
I124
sg24
I0
sbssg25
S'-\x9f\x8b\x95\xd6\xc5\x0e\x9f^T\x9a7\xd9C\xc9L'
p682
ssS'lib_python2_7_site-packages_django_db_migrations_operations_base'
p683
(dp684
g6
(dp685
g8
S'lib_python2_7_site-packages_django_db_migrations_operations_base.html'
p686
sg10
S'lib/python2.7/site-packages/django/db/migrations/operations/base'
p687
sg12
g13
(g14
g15
NtRp688
(dp689
g18
I1
sg19
I0
sg20
I31
sg21
I0
sg22
I0
sg23
I9
sg24
I0
sbssg25
S'iu`\xb6\x83{\xe2\xe5l\x9c\x01\xe3\xe0\x1b\x1f\x85'
p690
ssS'lib_python2_7_site-packages_django_core_files_uploadhandler'
p691
(dp692
g6
(dp693
g8
S'lib_python2_7_site-packages_django_core_files_uploadhandler.html'
p694
sg10
S'lib/python2.7/site-packages/django/core/files/uploadhandler'
p695
sg12
g13
(g14
g15
NtRp696
(dp697
g18
I1
sg19
I0
sg20
I78
sg21
I0
sg22
I0
sg23
I42
sg24
I0
sbssg25
S'\x87\xeb.\x85\xf0\xa8\x17\xe9\x18\xb9y|\x1c\xce\xf8\xee'
p698
ssS'lib_python2_7_site-packages_django_db_backends_base___init__'
p699
(dp700
g6
(dp701
g8
S'lib_python2_7_site-packages_django_db_backends_base___init__.html'
p702
sg10
S'lib/python2.7/site-packages/django/db/backends/base/__init__'
p703
sg12
g13
(g14
g15
NtRp704
(dp705
g18
I1
sg19
I0
sg20
I0
sg21
I0
sg22
I0
sg23
I0
sg24
I0
sbssg25
S'\xb0\xc8pN\xaf>\xa0\xbaz\x144\xe0A9\xb8?'
p706
ssS'lib_python2_7_site-packages_django_db_migrations_operations_models'
p707
(dp708
g6
(dp709
g8
S'lib_python2_7_site-packages_django_db_migrations_operations_models.html'
p710
sg10
S'lib/python2.7/site-packages/django/db/migrations/operations/models'
p711
sg12
g13
(g14
g15
NtRp712
(dp713
g18
I1
sg19
I0
sg20
I293
sg21
I0
sg22
I0
sg23
I168
sg24
I0
sbssg25
S'\x04\x98\x9b\x8d\xad\xcd,\xa3\n@AR\x90GEb'
p714
ssS'lib_python2_7_site-packages_django_contrib_messages_apps'
p715
(dp716
g6
(dp717
g8
S'lib_python2_7_site-packages_django_contrib_messages_apps.html'
p718
sg10
S'lib/python2.7/site-packages/django/contrib/messages/apps'
p719
sg12
g13
(g14
g15
NtRp720
(dp721
g18
I1
sg19
I0
sg20
I5
sg21
I0
sg22
I0
sg23
I0
sg24
I0
sbssg25
S'\xad?\x90\xbe\x8b\xb8\xb8B}\xf80$\xef\x17\x16,'
p722
ssS'lib_python2_7_site-packages_django_core_cache_backends_locmem'
p723
(dp724
g6
(dp725
g8
S'lib_python2_7_site-packages_django_core_cache_backends_locmem.html'
p726
sg10
S'lib/python2.7/site-packages/django/core/cache/backends/locmem'
p727
sg12
g13
(g14
g15
NtRp728
(dp729
g18
I1
sg19
I0
sg20
I109
sg21
I0
sg22
I0
sg23
I82
sg24
I0
sbssg25
S'\x179\'@!\x05|\xb1\xa8U\xba"\xc1x\x82b'
p730
ssS'lib_python2_7_site-packages_django_contrib_auth_tokens'
p731
(dp732
g6
(dp733
g8
S'lib_python2_7_site-packages_django_contrib_auth_tokens.html'
p734
sg10
S'lib/python2.7/site-packages/django/contrib/auth/tokens'
p735
sg12
g13
(g14
g15
NtRp736
(dp737
g18
I1
sg19
I0
sg20
I34
sg21
I0
sg22
I0
sg23
I22
sg24
I0
sbssg25
S'm\xedR\xb6\xbb\x9c\xe2\x05e\x1b\xa2a:@jf'
p738
ssS'lib_python2_7_site-packages_django_core_urlresolvers'
p739
(dp740
g6
(dp741
g8
S'lib_python2_7_site-packages_django_core_urlresolvers.html'
p742
sg10
S'lib/python2.7/site-packages/django/core/urlresolvers'
p743
sg12
g13
(g14
g15
NtRp744
(dp745
g18
I1
sg19
I0
sg20
I379
sg21
I0
sg22
I0
sg23
I311
sg24
I0
sbssg25
S'E\x0f\xa3\xc9\xdc\x0f&\xd4>"\xf3\x91\x9e\xf0\xda\xdb'
p746
ssS'lib_python2_7_site-packages_django_core_checks_security_csrf'
p747
(dp748
g6
(dp749
g8
S'lib_python2_7_site-packages_django_core_checks_security_csrf.html'
p750
sg10
S'lib/python2.7/site-packages/django/core/checks/security/csrf'
p751
sg12
g13
(g14
g15
NtRp752
(dp753
g18
I1
sg19
I0
sg20
I16
sg21
I0
sg22
I0
sg23
I7
sg24
I0
sbssg25
S"\xcd\xe7\x9b\xb9\xb9\x91gL\x9a\x06d`\x02h'\xe9"
p754
ssS'lib_python2_7_site-packages_django_utils_deconstruct'
p755
(dp756
g6
(dp757
g8
S'lib_python2_7_site-packages_django_utils_deconstruct.html'
p758
sg10
S'lib/python2.7/site-packages/django/utils/deconstruct'
p759
sg12
g13
(g14
g15
NtRp760
(dp761
g18
I1
sg19
I0
sg20
I25
sg21
I0
sg22
I0
sg23
I9
sg24
I0
sbssg25
S'\xd1;\xff\x98{\xfe\xb4\x92\xd2\xbe0W\xaei\xa6o'
p762
ssS'lib_python2_7_site-packages_django_contrib_admin_validation'
p763
(dp764
g6
(dp765
g8
S'lib_python2_7_site-packages_django_contrib_admin_validation.html'
p766
sg10
S'lib/python2.7/site-packages/django/contrib/admin/validation'
p767
sg12
g13
(g14
g15
NtRp768
(dp769
g18
I1
sg19
I0
sg20
I258
sg21
I0
sg22
I0
sg23
I214
sg24
I0
sbssg25
S'\xc0k\xeaf\xb40\xcf\x10>\xf5:\xee\x8b\xd9\x1eq'
p770
ssS'lib_python2_7_site-packages_django_template_backends_base'
p771
(dp772
g6
(dp773
g8
S'lib_python2_7_site-packages_django_template_backends_base.html'
p774
sg10
S'lib/python2.7/site-packages/django/template/backends/base'
p775
sg12
g13
(g14
g15
NtRp776
(dp777
g18
I1
sg19
I0
sg20
I30
sg21
I0
sg22
I0
sg23
I18
sg24
I0
sbssg25
S'\x0fSd*L\xd4\x90*\xdc\xac\xf7\xa1S\xefgi'
p778
ssS'lib_python2_7_site-packages_django_db_backends_sqlite3_features'
p779
(dp780
g6
(dp781
g8
S'lib_python2_7_site-packages_django_db_backends_sqlite3_features.html'
p782
sg10
S'lib/python2.7/site-packages/django/db/backends/sqlite3/features'
p783
sg12
g13
(g14
g15
NtRp784
(dp785
g18
I1
sg19
I0
sg20
I48
sg21
I0
sg22
I0
sg23
I12
sg24
I0
sbssg25
S'\x05t\xb3\x08H\xb1\xaa1L\x01L\xe8\x97YPy'
p786
ssS'lib_python2_7_site-packages_django_core_serializers_python'
p787
(dp788
g6
(dp789
g8
S'lib_python2_7_site-packages_django_core_serializers_python.html'
p790
sg10
S'lib/python2.7/site-packages/django/core/serializers/python'
p791
sg12
g13
(g14
g15
NtRp792
(dp793
g18
I1
sg19
I0
sg20
I96
sg21
I0
sg22
I0
sg23
I64
sg24
I0
sbssg25
S"\xd3\xd1pDJ\xcbI\x0c'\xae\xcfH1\xdfzF"
p794
ssS'lib_python2_7_site-packages_django_template_loader_tags'
p795
(dp796
g6
(dp797
g8
S'lib_python2_7_site-packages_django_template_loader_tags.html'
p798
sg10
S'lib/python2.7/site-packages/django/template/loader_tags'
p799
sg12
g13
(g14
g15
NtRp800
(dp801
g18
I1
sg19
I0
sg20
I155
sg21
I0
sg22
I0
sg23
I124
sg24
I0
sbssg25
S"\xb7]\x02\xc3O\x80'\xadP\x97\x10PR\xf8X\xa3"
p802
ssS'lib_python2_7_site-packages_django_utils_decorators'
p803
(dp804
g6
(dp805
g8
S'lib_python2_7_site-packages_django_utils_decorators.html'
p806
sg10
S'lib/python2.7/site-packages/django/utils/decorators'
p807
sg12
g13
(g14
g15
NtRp808
(dp809
g18
I1
sg19
I0
sg20
I75
sg21
I0
sg22
I0
sg23
I37
sg24
I0
sbssg25
S'ng\x81\x9dtK\xcb\xaf\x1c\xdb\xb9W7eO\xc8'
p810
ssS'wardens_admin'
p811
(dp812
g6
(dp813
g8
S'wardens_admin.html'
p814
sg10
S'wardens/admin'
p815
sg12
g13
(g14
g15
NtRp816
(dp817
g18
I1
sg19
I0
sg20
I7
sg21
I0
sg22
I0
sg23
I0
sg24
I0
sbssg25
S'\x17\x91\x0c@\xa2sEc\xc0\x0e57vG\x1b\xcd'
p818
ssS'lib_python2_7_site-packages_django_utils_formats'
p819
(dp820
g6
(dp821
g8
S'lib_python2_7_site-packages_django_utils_formats.html'
p822
sg10
S'lib/python2.7/site-packages/django/utils/formats'
p823
sg12
g13
(g14
g15
NtRp824
(dp825
g18
I1
sg19
I0
sg20
I127
sg21
I0
sg22
I0
sg23
I101
sg24
I0
sbssg25
S'\xab\xfbSF\x97\x9bE\xf3\xde\xddB\xed\xb0\x87\x98('
p826
ssS'lib_python2_7_site-packages_django_db_migrations_executor'
p827
(dp828
g6
(dp829
g8
S'lib_python2_7_site-packages_django_db_migrations_executor.html'
p830
sg10
S'lib/python2.7/site-packages/django/db/migrations/executor'
p831
sg12
g13
(g14
g15
NtRp832
(dp833
g18
I1
sg19
I0
sg20
I129
sg21
I0
sg22
I0
sg23
I60
sg24
I0
sbssg25
S'\x1f\x01\xa5\xe1\xd2a$D \xa9W^\xb0\xbbT@'
p834
ssS'lib_python2_7_site-packages_django_contrib_admin_checks'
p835
(dp836
g6
(dp837
g8
S'lib_python2_7_site-packages_django_contrib_admin_checks.html'
p838
sg10
S'lib/python2.7/site-packages/django/contrib/admin/checks'
p839
sg12
g13
(g14
g15
NtRp840
(dp841
g18
I1
sg19
I0
sg20
I400
sg21
I0
sg22
I0
sg23
I211
sg24
I0
sbssg25
S'\xe2\xc8\x02\x0b\x0f\x8ew\xb3\xf1k\xe7\xfb\xad\xf5\xe3\x1a'
p842
ssS'lib_python2_7_site-packages_django___init__'
p843
(dp844
g6
(dp845
g8
S'lib_python2_7_site-packages_django___init__.html'
p846
sg10
S'lib/python2.7/site-packages/django/__init__'
p847
sg12
g13
(g14
g15
NtRp848
(dp849
g18
I1
sg19
I0
sg20
I9
sg21
I0
sg22
I0
sg23
I0
sg24
I0
sbssg25
S'%I\xc3\x85\xed\xc2\xa3\t\xd4\xd3C\xb2\x89C\x9b8'
p850
ssS'lib_python2_7_site-packages_django_db_backends_base_operations'
p851
(dp852
g6
(dp853
g8
S'lib_python2_7_site-packages_django_db_backends_base_operations.html'
p854
sg10
S'lib/python2.7/site-packages/django/db/backends/base/operations'
p855
sg12
g13
(g14
g15
NtRp856
(dp857
g18
I1
sg19
I0
sg20
I179
sg21
I0
sg22
I0
sg23
I90
sg24
I0
sbssg25
S'4\x13%\x18j\r\xd3\xaak\r\xfe~\xc0\xaa"\x1b'
p858
ssS'lib_python2_7_site-packages_django_views_decorators_cache'
p859
(dp860
g6
(dp861
g8
S'lib_python2_7_site-packages_django_views_decorators_cache.html'
p862
sg10
S'lib/python2.7/site-packages/django/views/decorators/cache'
p863
sg12
g13
(g14
g15
NtRp864
(dp865
g18
I1
sg19
I0
sg20
I27
sg21
I0
sg22
I0
sg23
I18
sg24
I0
sbssg25
S'\xce\n\x00+\x1bi\xda\x12h\xb4\xf2\x8a\x99\x9d}\xf1'
p866
ssS'lib_python2_7_site-packages_django_views_static'
p867
(dp868
g6
(dp869
g8
S'lib_python2_7_site-packages_django_views_static.html'
p870
sg10
S'lib/python2.7/site-packages/django/views/static'
p871
sg12
g13
(g14
g15
NtRp872
(dp873
g18
I1
sg19
I0
sg20
I73
sg21
I0
sg22
I0
sg23
I57
sg24
I0
sbssg25
S'S\xecU\xb3\xb9\x91&\xd5X\x0b\xc5!\xe68\x8e\x82'
p874
ssS'lib_python2_7_site-packages_django_db_backends_sqlite3_schema'
p875
(dp876
g6
(dp877
g8
S'lib_python2_7_site-packages_django_db_backends_sqlite3_schema.html'
p878
sg10
S'lib/python2.7/site-packages/django/db/backends/sqlite3/schema'
p879
sg12
g13
(g14
g15
NtRp880
(dp881
g18
I1
sg19
I0
sg20
I112
sg21
I0
sg22
I0
sg23
I32
sg24
I0
sbssg25
S'\x17il\xdd\x17~\xd4\xed,Q\x15K\xc9\xac\x0b\x8b'
p882
ssS'lib_python2_7_site-packages_django_forms_formsets'
p883
(dp884
g6
(dp885
g8
S'lib_python2_7_site-packages_django_forms_formsets.html'
p886
sg10
S'lib/python2.7/site-packages/django/forms/formsets'
p887
sg12
g13
(g14
g15
NtRp888
(dp889
g18
I1
sg19
I0
sg20
I223
sg21
I0
sg22
I0
sg23
I160
sg24
I0
sbssg25
S'\xd6\r\x86\x9e\xa9\xa1\xe8\xa1\x96\xa8<\xdf\xdb\x9a\x10='
p890
ssS'lib_python2_7_site-packages_django_apps_config'
p891
(dp892
g6
(dp893
g8
S'lib_python2_7_site-packages_django_apps_config.html'
p894
sg10
S'lib/python2.7/site-packages/django/apps/config'
p895
sg12
g13
(g14
g15
NtRp896
(dp897
g18
I1
sg19
I0
sg20
I84
sg21
I0
sg22
I0
sg23
I21
sg24
I0
sbssg25
S'\xce\x1c\x8c\xaf\xf7t\x92\xe0v\xab\xfc\x8e\xe7\x8c\xb6\xf0'
p898
ssS'lib_python2_7_site-packages_django_db_models_sql___init__'
p899
(dp900
g6
(dp901
g8
S'lib_python2_7_site-packages_django_db_models_sql___init__.html'
p902
sg10
S'lib/python2.7/site-packages/django/db/models/sql/__init__'
p903
sg12
g13
(g14
g15
NtRp904
(dp905
g18
I1
sg19
I0
sg20
I5
sg21
I0
sg22
I0
sg23
I0
sg24
I0
sbssg25
S'\xee\x05~\x14<\xbd\xceO\xa9\xcf\xd3\t\x04\xfbDP'
p906
ssS'lib_python2_7_site-packages_django_contrib_admin_apps'
p907
(dp908
g6
(dp909
g8
S'lib_python2_7_site-packages_django_contrib_admin_apps.html'
p910
sg10
S'lib/python2.7/site-packages/django/contrib/admin/apps'
p911
sg12
g13
(g14
g15
NtRp912
(dp913
g18
I1
sg19
I0
sg20
I13
sg21
I0
sg22
I0
sg23
I0
sg24
I0
sbssg25
S'\x1b\xd2\xb4\x8d\xe4\xa2jUAU\xd8\xd5\xf5B\x86\xe7'
p914
ssS'lib_python2_7_site-packages_django_template_smartif'
p915
(dp916
g6
(dp917
g8
S'lib_python2_7_site-packages_django_template_smartif.html'
p918
sg10
S'lib/python2.7/site-packages/django/template/smartif'
p919
sg12
g13
(g14
g15
NtRp920
(dp921
g18
I1
sg19
I0
sg20
I108
sg21
I0
sg22
I0
sg23
I63
sg24
I0
sbssg25
S'<\xe2\x94"*\x86\x88\xdb.\xcf\x92\x93\xa3ps\xf6'
p922
ssS'lib_python2_7_site-packages_django_db_backends_sqlite3_creation'
p923
(dp924
g6
(dp925
g8
S'lib_python2_7_site-packages_django_db_backends_sqlite3_creation.html'
p926
sg10
S'lib/python2.7/site-packages/django/db/backends/sqlite3/creation'
p927
sg12
g13
(g14
g15
NtRp928
(dp929
g18
I1
sg19
I0
sg20
I48
sg21
I0
sg22
I0
sg23
I21
sg24
I0
sbssg25
S'A@\xbeQ\xa2U<F\xe7\xf8\x80r\xaa\x8e1\xb5'
p930
ssS'lib_python2_7_site-packages_django_core_checks_security___init__'
p931
(dp932
g6
(dp933
g8
S'lib_python2_7_site-packages_django_core_checks_security___init__.html'
p934
sg10
S'lib/python2.7/site-packages/django/core/checks/security/__init__'
p935
sg12
g13
(g14
g15
NtRp936
(dp937
g18
I1
sg19
I0
sg20
I0
sg21
I0
sg22
I0
sg23
I0
sg24
I0
sbssg25
S'\xb0\xc8pN\xaf>\xa0\xbaz\x144\xe0A9\xb8?'
p938
ssS'lib_python2_7_site-packages_django_test___init__'
p939
(dp940
g6
(dp941
g8
S'lib_python2_7_site-packages_django_test___init__.html'
p942
sg10
S'lib/python2.7/site-packages/django/test/__init__'
p943
sg12
g13
(g14
g15
NtRp944
(dp945
g18
I1
sg19
I0
sg20
I11
sg21
I0
sg22
I0
sg23
I0
sg24
I0
sbssg25
S'\x910\x87L\xd4!1\x1f\xd2;\xe6\x83\xc2B\xc4\xba'
p946
ssS'lib_python2_7_site-packages_django_db_backends_signals'
p947
(dp948
g6
(dp949
g8
S'lib_python2_7_site-packages_django_db_backends_signals.html'
p950
sg10
S'lib/python2.7/site-packages/django/db/backends/signals'
p951
sg12
g13
(g14
g15
NtRp952
(dp953
g18
I1
sg19
I0
sg20
I2
sg21
I0
sg22
I0
sg23
I0
sg24
I0
sbssg25
S'\xac\xe8\xc0\xe9\x8a\xd9d\xcc\x03\xc1\x89\xd4\xde\xa8x<'
p954
ssS'lib_python2_7_site-packages_django_core_servers_basehttp'
p955
(dp956
g6
(dp957
g8
S'lib_python2_7_site-packages_django_core_servers_basehttp.html'
p958
sg10
S'lib/python2.7/site-packages/django/core/servers/basehttp'
p959
sg12
g13
(g14
g15
NtRp960
(dp961
g18
I1
sg19
I0
sg20
I106
sg21
I0
sg22
I0
sg23
I76
sg24
I0
sbssg25
S'n\x8d .\xde\x89\xc1R\xfc\x0e \xc3L\xdd\xc5\x9a'
p962
ssS'lib_python2_7_site-packages_django_contrib_contenttypes_checks'
p963
(dp964
g6
(dp965
g8
S'lib_python2_7_site-packages_django_contrib_contenttypes_checks.html'
p966
sg10
S'lib/python2.7/site-packages/django/contrib/contenttypes/checks'
p967
sg12
g13
(g14
g15
NtRp968
(dp969
g18
I1
sg19
I0
sg20
I10
sg21
I0
sg22
I0
sg23
I6
sg24
I0
sbssg25
S'\x8e\xd1dp\xc8=\xa0\x815\xb2\x87\xdb\xbe\xd7\x06t'
p970
ssS'lib_python2_7_site-packages_django_db_backends_base_introspection'
p971
(dp972
g6
(dp973
g8
S'lib_python2_7_site-packages_django_db_backends_base_introspection.html'
p974
sg10
S'lib/python2.7/site-packages/django/db/backends/base/introspection'
p975
sg12
g13
(g14
g15
NtRp976
(dp977
g18
I1
sg19
I0
sg20
I75
sg21
I0
sg22
I0
sg23
I35
sg24
I0
sbssg25
S'\x8er%\x19\xfb:\xe5\x80}+\xa88\x92\x8b\\\x97'
p978
ssS'lib_python2_7_site-packages_django_db_backends_sqlite3_client'
p979
(dp980
g6
(dp981
g8
S'lib_python2_7_site-packages_django_db_backends_sqlite3_client.html'
p982
sg10
S'lib/python2.7/site-packages/django/db/backends/sqlite3/client'
p983
sg12
g13
(g14
g15
NtRp984
(dp985
g18
I1
sg19
I0
sg20
I7
sg21
I0
sg22
I0
sg23
I2
sg24
I0
sbssg25
S'\x85K9\xd7\xa2\x9dT\xcfV\xd0]\x91*(\xd1\xb5'
p986
ssS'lib_python2_7_site-packages_django_core_files_images'
p987
(dp988
g6
(dp989
g8
S'lib_python2_7_site-packages_django_core_files_images.html'
p990
sg10
S'lib/python2.7/site-packages/django/core/files/images'
p991
sg12
g13
(g14
g15
NtRp992
(dp993
g18
I1
sg19
I0
sg20
I43
sg21
I0
sg22
I0
sg23
I34
sg24
I0
sbssg25
S'\xd8\x08F\xdc\x9c\x1b\r\xa2\xb13\xb0\xc1Q\xc6\x90\xce'
p994
ssS'lib_python2_7_site-packages_django_utils_tree'
p995
(dp996
g6
(dp997
g8
S'lib_python2_7_site-packages_django_utils_tree.html'
p998
sg10
S'lib/python2.7/site-packages/django/utils/tree'
p999
sg12
g13
(g14
g15
NtRp1000
(dp1001
g18
I1
sg19
I0
sg20
I52
sg21
I0
sg22
I0
sg23
I21
sg24
I0
sbssg25
S'0\xf8\x1e\x9e\x8d\x86wP1$\xd9\x9cR\xa2\xcd\xe7'
p1002
ssS'lib_python2_7_site-packages_django_contrib_auth_signals'
p1003
(dp1004
g6
(dp1005
g8
S'lib_python2_7_site-packages_django_contrib_auth_signals.html'
p1006
sg10
S'lib/python2.7/site-packages/django/contrib/auth/signals'
p1007
sg12
g13
(g14
g15
NtRp1008
(dp1009
g18
I1
sg19
I0
sg20
I4
sg21
I0
sg22
I0
sg23
I0
sg24
I0
sbssg25
S'juq\x85\xf8\xf6\x92\xd4\xc6;\xc1\x16\xc2\xaa\xe6\xec'
p1010
ssS'lib_python2_7_site-packages_django_db_migrations_autodetector'
p1011
(dp1012
g6
(dp1013
g8
S'lib_python2_7_site-packages_django_db_migrations_autodetector.html'
p1014
sg10
S'lib/python2.7/site-packages/django/db/migrations/autodetector'
p1015
sg12
g13
(g14
g15
NtRp1016
(dp1017
g18
I1
sg19
I0
sg20
I538
sg21
I0
sg22
I0
sg23
I494
sg24
I0
sbssg25
S'\x9e%\x12\xef\xe9\x84\xfd=*\xb9\xe2\x1f\x8c\x82\xab\xa2'
p1018
ssS'lib_python2_7_site-packages_django_template_defaulttags'
p1019
(dp1020
g6
(dp1021
g8
S'lib_python2_7_site-packages_django_template_defaulttags.html'
p1022
sg10
S'lib/python2.7/site-packages/django/template/defaulttags'
p1023
sg12
g13
(g14
g15
NtRp1024
(dp1025
g18
I1
sg19
I0
sg20
I659
sg21
I0
sg22
I0
sg23
I533
sg24
I0
sbssg25
S'!\xb0\x88\xc5\xcfx\xcef\xd0\xc7\x80\xc5\xc5\xf9\xf8\xd9'
p1026
ssS'lib_python2_7_site-packages_django_core_checks_messages'
p1027
(dp1028
g6
(dp1029
g8
S'lib_python2_7_site-packages_django_core_checks_messages.html'
p1030
sg10
S'lib/python2.7/site-packages/django/core/checks/messages'
p1031
sg12
g13
(g14
g15
NtRp1032
(dp1033
g18
I1
sg19
I0
sg20
I54
sg21
I0
sg22
I0
sg23
I21
sg24
I0
sbssg25
S'\xe8P\xd2\x00_I\xecM\xb7\xd9\xb3\xd7b\x9e\x9e.'
p1034
ssS'lib_python2_7_site-packages_django_http_request'
p1035
(dp1036
g6
(dp1037
g8
S'lib_python2_7_site-packages_django_http_request.html'
p1038
sg10
S'lib/python2.7/site-packages/django/http/request'
p1039
sg12
g13
(g14
g15
NtRp1040
(dp1041
g18
I1
sg19
I0
sg20
I312
sg21
I0
sg22
I0
sg23
I237
sg24
I0
sbssg25
S'\x15\x1c\xe8\xcc\xf7\xe5\xac\xad|#ys8+\x97v'
p1042
ssS'lib_python2_7_site-packages_django_contrib_auth_migrations_0004_alter_user_username_opts'
p1043
(dp1044
g6
(dp1045
g8
S'lib_python2_7_site-packages_django_contrib_auth_migrations_0004_alter_user_username_opts.html'
p1046
sg10
S'lib/python2.7/site-packages/django/contrib/auth/migrations/0004_alter_user_username_opts'
p1047
sg12
g13
(g14
g15
NtRp1048
(dp1049
g18
I1
sg19
I0
sg20
I6
sg21
I0
sg22
I0
sg23
I0
sg24
I0
sbssg25
S'\xe0t\xb9B3\xc6\xd3G\x05\xc3\xcd\xe11\xec\x82n'
p1050
ssS'lib_python2_7_site-packages_django_contrib_admin_templatetags_admin_static'
p1051
(dp1052
g6
(dp1053
g8
S'lib_python2_7_site-packages_django_contrib_admin_templatetags_admin_static.html'
p1054
sg10
S'lib/python2.7/site-packages/django/contrib/admin/templatetags/admin_static'
p1055
sg12
g13
(g14
g15
NtRp1056
(dp1057
g18
I1
sg19
I0
sg20
I10
sg21
I0
sg22
I0
sg23
I5
sg24
I0
sbssg25
S'\xa9\xc7\x10\x8f!,\xf1\xd4\x9a\x9fk\xc6$\xe8u%'
p1058
ssS'lib_python2_7_site-packages_django_test_utils'
p1059
(dp1060
g6
(dp1061
g8
S'lib_python2_7_site-packages_django_test_utils.html'
p1062
sg10
S'lib/python2.7/site-packages/django/test/utils'
p1063
sg12
g13
(g14
g15
NtRp1064
(dp1065
g18
I1
sg19
I0
sg20
I334
sg21
I0
sg22
I0
sg23
I231
sg24
I0
sbssg25
S'|\xc3\xc2cR\xf2f\xf5\xd5\xdd\xa9J\xc2\xacf\xc2'
p1066
ssS'lib_python2_7_site-packages_django_middleware_csrf'
p1067
(dp1068
g6
(dp1069
g8
S'lib_python2_7_site-packages_django_middleware_csrf.html'
p1070
sg10
S'lib/python2.7/site-packages/django/middleware/csrf'
p1071
sg12
g13
(g14
g15
NtRp1072
(dp1073
g18
I1
sg19
I0
sg20
I84
sg21
I0
sg22
I0
sg23
I59
sg24
I0
sbssg25
S'V,Y\xc0ur\xa3\xe6[\x8e\x1f\x0c\x1f\x96\xf6\xbe'
p1074
ssS'lib_python2_7_site-packages_django_utils_dateformat'
p1075
(dp1076
g6
(dp1077
g8
S'lib_python2_7_site-packages_django_utils_dateformat.html'
p1078
sg10
S'lib/python2.7/site-packages/django/utils/dateformat'
p1079
sg12
g13
(g14
g15
NtRp1080
(dp1081
g18
I1
sg19
I0
sg20
I196
sg21
I0
sg22
I0
sg23
I136
sg24
I0
sbssg25
S"!\xff8!\x83J\xb5\xb7i\xb5At\xca'\x9a\x02"
p1082
ssS'wardens_models'
p1083
(dp1084
g6
(dp1085
g8
S'wardens_models.html'
p1086
sg10
S'wardens/models'
p1087
sg12
g13
(g14
g15
NtRp1088
(dp1089
g18
I1
sg19
I0
sg20
I55
sg21
I0
sg22
I0
sg23
I4
sg24
I0
sbssg25
S'\n\xa5\xb2\xbe\x94\x03\xd7\x0b\xb3)\xbb\xdb\xb7\xaaj\x9c'
p1090
ssS'lib_python2_7_site-packages_django_utils_lru_cache'
p1091
(dp1092
g6
(dp1093
g8
S'lib_python2_7_site-packages_django_utils_lru_cache.html'
p1094
sg10
S'lib/python2.7/site-packages/django/utils/lru_cache'
p1095
sg12
g13
(g14
g15
NtRp1096
(dp1097
g18
I1
sg19
I0
sg20
I106
sg21
I0
sg22
I0
sg23
I44
sg24
I0
sbssg25
S'\x00\x1d7^\xba\x11V\xcd\x1a\xf6\x03\x84\x9f>|2'
p1098
ssS'lib_python2_7_site-packages_django_utils_cache'
p1099
(dp1100
g6
(dp1101
g8
S'lib_python2_7_site-packages_django_utils_cache.html'
p1102
sg10
S'lib/python2.7/site-packages/django/utils/cache'
p1103
sg12
g13
(g14
g15
NtRp1104
(dp1105
g18
I1
sg19
I0
sg20
I134
sg21
I0
sg22
I0
sg23
I110
sg24
I0
sbssg25
S'\xe4!c\xd1\x93p\xdb\x05\x82#\x969\xa6\x8e\xfb\xe7'
p1106
ssS'lib_python2_7_site-packages_django_core_management_commands_loaddata'
p1107
(dp1108
g6
(dp1109
g8
S'lib_python2_7_site-packages_django_core_management_commands_loaddata.html'
p1110
sg10
S'lib/python2.7/site-packages/django/core/management/commands/loaddata'
p1111
sg12
g13
(g14
g15
NtRp1112
(dp1113
g18
I1
sg19
I0
sg20
I185
sg21
I0
sg22
I0
sg23
I82
sg24
I0
sbssg25
S'\xe7\x14\xb4\x05\xe3\xde\xe7\xa9\x8c\xca)w7"\xf2\xf7'
p1114
ssS'lib_python2_7_site-packages_django_contrib_admin_templatetags_admin_urls'
p1115
(dp1116
g6
(dp1117
g8
S'lib_python2_7_site-packages_django_contrib_admin_templatetags_admin_urls.html'
p1118
sg10
S'lib/python2.7/site-packages/django/contrib/admin/templatetags/admin_urls'
p1119
sg12
g13
(g14
g15
NtRp1120
(dp1121
g18
I1
sg19
I0
sg20
I38
sg21
I0
sg22
I0
sg23
I28
sg24
I0
sbssg25
S'l\xdc\xf3\xa1\xe2\x7f\xe4{\xcbg\x07\xdaQ\xe6\xecF'
p1122
ssS'lib_python2_7_site-packages_django_db_models_fields___init__'
p1123
(dp1124
g6
(dp1125
g8
S'lib_python2_7_site-packages_django_db_models_fields___init__.html'
p1126
sg10
S'lib/python2.7/site-packages/django/db/models/fields/__init__'
p1127
sg12
g13
(g14
g15
NtRp1128
(dp1129
g18
I1
sg19
I0
sg20
I1320
sg21
I0
sg22
I0
sg23
I705
sg24
I0
sbssg25
S"bW\x0f\x97\x80\xcd\x04\xffJ?\x88\xb7M\x02'\xad"
p1130
ssS'wardens_migrations_0003_auto_20160728_1238'
p1131
(dp1132
g6
(dp1133
g8
S'wardens_migrations_0003_auto_20160728_1238.html'
p1134
sg10
S'wardens/migrations/0003_auto_20160728_1238'
p1135
sg12
g13
(g14
g15
NtRp1136
(dp1137
g18
I1
sg19
I0
sg20
I5
sg21
I0
sg22
I0
sg23
I0
sg24
I0
sbssg25
S'3\xea\xfe\x1a"d\x0c\x84\x1d\xcf\x05A<K\xbc\xa2'
p1138
ssS'lib_python2_7_site-packages_django_db___init__'
p1139
(dp1140
g6
(dp1141
g8
S'lib_python2_7_site-packages_django_db___init__.html'
p1142
sg10
S'lib/python2.7/site-packages/django/db/__init__'
p1143
sg12
g13
(g14
g15
NtRp1144
(dp1145
g18
I1
sg19
I0
sg20
I26
sg21
I0
sg22
I0
sg23
I8
sg24
I0
sbssg25
S'\xe2\xfc\xaa\xe5\xaa}\xb5f\x07\xd78\x07\xca(\n\x11'
p1146
ssS'lib_python2_7_site-packages_django_db_backends_base_creation'
p1147
(dp1148
g6
(dp1149
g8
S'lib_python2_7_site-packages_django_db_backends_base_creation.html'
p1150
sg10
S'lib/python2.7/site-packages/django/db/backends/base/creation'
p1151
sg12
g13
(g14
g15
NtRp1152
(dp1153
g18
I1
sg19
I0
sg20
I285
sg21
I0
sg22
I0
sg23
I199
sg24
I0
sbssg25
S'\x91\xbc\xc7\x86[\x91\xca}\xa3Mw)\xb5\xf0\xecE'
p1154
ssS'lib_python2_7_site-packages_django_test_html'
p1155
(dp1156
g6
(dp1157
g8
S'lib_python2_7_site-packages_django_test_html.html'
p1158
sg10
S'lib/python2.7/site-packages/django/test/html'
p1159
sg12
g13
(g14
g15
NtRp1160
(dp1161
g18
I1
sg19
I0
sg20
I166
sg21
I0
sg22
I0
sg23
I128
sg24
I0
sbssg25
S'\xfd!\x02\\\x84\xcbY0U\xc9\xc3\xe3<\xa3\x88)'
p1162
ssS'lib_python2_7_site-packages_django_db_models_fields_subclassing'
p1163
(dp1164
g6
(dp1165
g8
S'lib_python2_7_site-packages_django_db_models_fields_subclassing.html'
p1166
sg10
S'lib/python2.7/site-packages/django/db/models/fields/subclassing'
p1167
sg12
g13
(g14
g15
NtRp1168
(dp1169
g18
I1
sg19
I0
sg20
I24
sg21
I0
sg22
I0
sg23
I15
sg24
I0
sbssg25
S'g\xf2\xe5\xb5\xafc^p\x92\x030\xfa#\x17\xca\xa3'
p1170
ssS'lib_python2_7_site-packages_django_template_loader'
p1171
(dp1172
g6
(dp1173
g8
S'lib_python2_7_site-packages_django_template_loader.html'
p1174
sg10
S'lib/python2.7/site-packages/django/template/loader'
p1175
sg12
g13
(g14
g15
NtRp1176
(dp1177
g18
I1
sg19
I0
sg20
I72
sg21
I0
sg22
I0
sg23
I55
sg24
I0
sbssg25
S'V\x0e\x9f\x90\x13c\x13\xf9\xd6\xcd\xfcn\t\x8a:j'
p1178
ssS'lib_python2_7_site-packages_django_contrib_contenttypes_management'
p1179
(dp1180
g6
(dp1181
g8
S'lib_python2_7_site-packages_django_contrib_contenttypes_management.html'
p1182
sg10
S'lib/python2.7/site-packages/django/contrib/contenttypes/management'
p1183
sg12
g13
(g14
g15
NtRp1184
(dp1185
g18
I1
sg19
I0
sg20
I37
sg21
I0
sg22
I0
sg23
I17
sg24
I0
sbssg25
S'1\xfa\x8d\x8bV;u\xb1\x80\xcf6\xcf\xe4\x7fLi'
p1186
ssS'lib_python2_7_site-packages_django_core_handlers___init__'
p1187
(dp1188
g6
(dp1189
g8
S'lib_python2_7_site-packages_django_core_handlers___init__.html'
p1190
sg10
S'lib/python2.7/site-packages/django/core/handlers/__init__'
p1191
sg12
g13
(g14
g15
NtRp1192
(dp1193
g18
I1
sg19
I0
sg20
I0
sg21
I0
sg22
I0
sg23
I0
sg24
I0
sbssg25
S'\xb0\xc8pN\xaf>\xa0\xbaz\x144\xe0A9\xb8?'
p1194
ssS'lib_python2_7_site-packages_django_contrib_admin_templatetags___init__'
p1195
(dp1196
g6
(dp1197
g8
S'lib_python2_7_site-packages_django_contrib_admin_templatetags___init__.html'
p1198
sg10
S'lib/python2.7/site-packages/django/contrib/admin/templatetags/__init__'
p1199
sg12
g13
(g14
g15
NtRp1200
(dp1201
g18
I1
sg19
I0
sg20
I0
sg21
I0
sg22
I0
sg23
I0
sg24
I0
sbssg25
S'\xb0\xc8pN\xaf>\xa0\xbaz\x144\xe0A9\xb8?'
p1202
ssS'lib_python2_7_site-packages_django_dispatch_dispatcher'
p1203
(dp1204
g6
(dp1205
g8
S'lib_python2_7_site-packages_django_dispatch_dispatcher.html'
p1206
sg10
S'lib/python2.7/site-packages/django/dispatch/dispatcher'
p1207
sg12
g13
(g14
g15
NtRp1208
(dp1209
g18
I1
sg19
I0
sg20
I133
sg21
I0
sg22
I0
sg23
I49
sg24
I0
sbssg25
S'k"\xb8$\x03\x9b\x7f\x1f\xf1\xcb\x86-\xba}\xf4\x93'
p1210
ssS'lib_python2_7_site-packages_django_contrib_auth_apps'
p1211
(dp1212
g6
(dp1213
g8
S'lib_python2_7_site-packages_django_contrib_auth_apps.html'
p1214
sg10
S'lib/python2.7/site-packages/django/contrib/auth/apps'
p1215
sg12
g13
(g14
g15
NtRp1216
(dp1217
g18
I1
sg19
I0
sg20
I12
sg21
I0
sg22
I0
sg23
I0
sg24
I0
sbssg25
S'\xc0\x0b\xde\x0b\x8e\x1e\xdc\x06\xban"\xd9\xb1\x00\x1fK'
p1218
ssS'lib_python2_7_site-packages_django_contrib_auth_checks'
p1219
(dp1220
g6
(dp1221
g8
S'lib_python2_7_site-packages_django_contrib_auth_checks.html'
p1222
sg10
S'lib/python2.7/site-packages/django/contrib/auth/checks'
p1223
sg12
g13
(g14
g15
NtRp1224
(dp1225
g18
I1
sg19
I0
sg20
I16
sg21
I0
sg22
I0
sg23
I11
sg24
I0
sbssg25
S'\xea\xe8\xef\xb9\xe1x#\xfft~\\\x17\xcf\xc7\x80U'
p1226
ssS'lib_python2_7_site-packages_django_core_files_locks'
p1227
(dp1228
g6
(dp1229
g8
S'lib_python2_7_site-packages_django_core_files_locks.html'
p1230
sg10
S'lib/python2.7/site-packages/django/core/files/locks'
p1231
sg12
g13
(g14
g15
NtRp1232
(dp1233
g18
I1
sg19
I0
sg20
I57
sg21
I0
sg22
I0
sg23
I46
sg24
I0
sbssg25
S'F\xa8\xff]\xbc\xf7a\xeb\xe5\xcf\xddW\x994\xaeP'
p1234
ssS'lib_python2_7_site-packages_django_utils_lorem_ipsum'
p1235
(dp1236
g6
(dp1237
g8
S'lib_python2_7_site-packages_django_utils_lorem_ipsum.html'
p1238
sg10
S'lib/python2.7/site-packages/django/utils/lorem_ipsum'
p1239
sg12
g13
(g14
g15
NtRp1240
(dp1241
g18
I1
sg19
I0
sg20
I31
sg21
I0
sg22
I0
sg23
I22
sg24
I0
sbssg25
S's\x98\xe5f*\x9a\x19\xfbYi\rP\x9d\xf5\x8bp'
p1242
ssS'lib_python2_7_site-packages_django_contrib_admin_actions'
p1243
(dp1244
g6
(dp1245
g8
S'lib_python2_7_site-packages_django_contrib_admin_actions.html'
p1246
sg10
S'lib/python2.7/site-packages/django/contrib/admin/actions'
p1247
sg12
g13
(g14
g15
NtRp1248
(dp1249
g18
I1
sg19
I0
sg20
I36
sg21
I0
sg22
I0
sg23
I26
sg24
I0
sbssg25
S'^\xe1\xda\xcd\x81\xe5A\xc7\x9f7\x91\xac`3\xcaG'
p1250
ssS'lib_python2_7_site-packages_django_utils_version'
p1251
(dp1252
g6
(dp1253
g8
S'lib_python2_7_site-packages_django_utils_version.html'
p1254
sg10
S'lib/python2.7/site-packages/django/utils/version'
p1255
sg12
g13
(g14
g15
NtRp1256
(dp1257
g18
I1
sg19
I0
sg20
I42
sg21
I0
sg22
I0
sg23
I17
sg24
I0
sbssg25
S'Y\xe6\xe2\x14QX\xfe\xd6\xd6\x92\xb3Jv|\xaf\xa0'
p1258
ssS'lib_python2_7_site-packages_django_middleware_cache'
p1259
(dp1260
g6
(dp1261
g8
S'lib_python2_7_site-packages_django_middleware_cache.html'
p1262
sg10
S'lib/python2.7/site-packages/django/middleware/cache'
p1263
sg12
g13
(g14
g15
NtRp1264
(dp1265
g18
I1
sg19
I0
sg20
I72
sg21
I0
sg22
I0
sg23
I60
sg24
I0
sbssg25
S'qp\x13c\xa8\x04e~\xf8]\x05\xf7\x04\xe9"\x83'
p1266
ssS'lib_python2_7_site-packages_django_contrib_auth_admin'
p1267
(dp1268
g6
(dp1269
g8
S'lib_python2_7_site-packages_django_contrib_auth_admin.html'
p1270
sg10
S'lib/python2.7/site-packages/django/contrib/auth/admin'
p1271
sg12
g13
(g14
g15
NtRp1272
(dp1273
g18
I1
sg19
I0
sg20
I102
sg21
I0
sg22
I0
sg23
I51
sg24
I0
sbssg25
S'\xac\xb9QM\xcdR\x8e\x01\xf3\xb9A\x97\x99\xe1\xab\x81'
p1274
ssS'lib_python2_7_site-packages_django_core_management_color'
p1275
(dp1276
g6
(dp1277
g8
S'lib_python2_7_site-packages_django_core_management_color.html'
p1278
sg10
S'lib/python2.7/site-packages/django/core/management/color'
p1279
sg12
g13
(g14
g15
NtRp1280
(dp1281
g18
I1
sg19
I0
sg20
I29
sg21
I0
sg22
I0
sg23
I2
sg24
I0
sbssg25
S'\x82J\x1d\xc6Y\xfc\x07\x15\\i\x06>W\x14\x02\x17'
p1282
ssS'lib_python2_7_site-packages_django_db_migrations___init__'
p1283
(dp1284
g6
(dp1285
g8
S'lib_python2_7_site-packages_django_db_migrations___init__.html'
p1286
sg10
S'lib/python2.7/site-packages/django/db/migrations/__init__'
p1287
sg12
g13
(g14
g15
NtRp1288
(dp1289
g18
I1
sg19
I0
sg20
I2
sg21
I0
sg22
I0
sg23
I0
sg24
I0
sbssg25
S'\xe3A\xfdeM\xdcG\r\xfe\x11\x0cB\xe4\xb8\x00]'
p1290
ssS'lib_python2_7_site-packages_django_db_models_base'
p1291
(dp1292
g6
(dp1293
g8
S'lib_python2_7_site-packages_django_db_models_base.html'
p1294
sg10
S'lib/python2.7/site-packages/django/db/models/base'
p1295
sg12
g13
(g14
g15
NtRp1296
(dp1297
g18
I1
sg19
I0
sg20
I828
sg21
I0
sg22
I0
sg23
I553
sg24
I0
sbssg25
S'mI\xf5Upvgo\xc8\xe6]\x11\xcb\xa2Dx'
p1298
ssS'lib_python2_7_site-packages_django_core_files_base'
p1299
(dp1300
g6
(dp1301
g8
S'lib_python2_7_site-packages_django_core_files_base.html'
p1302
sg10
S'lib/python2.7/site-packages/django/core/files/base'
p1303
sg12
g13
(g14
g15
NtRp1304
(dp1305
g18
I1
sg19
I0
sg20
I119
sg21
I0
sg22
I0
sg23
I80
sg24
I0
sbssg25
S"#\xf1\xd0b\xfa'\x19\xc0\x96\xd3\xe4:\xc4\x1e\xeb("
p1306
ssS'lib_python2_7_site-packages_django_db_transaction'
p1307
(dp1308
g6
(dp1309
g8
S'lib_python2_7_site-packages_django_db_transaction.html'
p1310
sg10
S'lib/python2.7/site-packages/django/db/transaction'
p1311
sg12
g13
(g14
g15
NtRp1312
(dp1313
g18
I1
sg19
I0
sg20
I119
sg21
I0
sg22
I0
sg23
I61
sg24
I0
sbssg25
S'\xe9\xe1\xad\xe5N\xcceEY\x1d\x81l\x17\xf1\xd3}'
p1314
ssS'lib_python2_7_site-packages_django_core_checks_security_base'
p1315
(dp1316
g6
(dp1317
g8
S'lib_python2_7_site-packages_django_core_checks_security_base.html'
p1318
sg10
S'lib/python2.7/site-packages/django/core/checks/security/base'
p1319
sg12
g13
(g14
g15
NtRp1320
(dp1321
g18
I1
sg19
I0
sg20
I48
sg21
I0
sg22
I0
sg23
I22
sg24
I0
sbssg25
S'\xe8Z\xc0\xd0\x1b-g\x07hM\xe1\xfb\x95\xd9\xe5p'
p1322
ssS'lib_python2_7_site-packages_django_template_loaders_base'
p1323
(dp1324
g6
(dp1325
g8
S'lib_python2_7_site-packages_django_template_loaders_base.html'
p1326
sg10
S'lib/python2.7/site-packages/django/template/loaders/base'
p1327
sg12
g13
(g14
g15
NtRp1328
(dp1329
g18
I1
sg19
I0
sg20
I20
sg21
I0
sg22
I0
sg23
I11
sg24
I0
sbssg25
S'l\xa1\xc5-\x81 l\xdbQ\xf8\xab\xb8\xac\xd3\xd6\x11'
p1330
ssS'lib_python2_7_site-packages_django_http_response'
p1331
(dp1332
g6
(dp1333
g8
S'lib_python2_7_site-packages_django_http_response.html'
p1334
sg10
S'lib/python2.7/site-packages/django/http/response'
p1335
sg12
g13
(g14
g15
NtRp1336
(dp1337
g18
I1
sg19
I0
sg20
I259
sg21
I0
sg22
I0
sg23
I155
sg24
I0
sbssg25
S'fM\xe2Wt0\x8b\xeb\x9e,\x18\xb1N\xb4\xd3\xd7'
p1338
ssS'lib_python2_7_site-packages_django_forms_widgets'
p1339
(dp1340
g6
(dp1341
g8
S'lib_python2_7_site-packages_django_forms_widgets.html'
p1342
sg10
S'lib/python2.7/site-packages/django/forms/widgets'
p1343
sg12
g13
(g14
g15
NtRp1344
(dp1345
g18
I1
sg19
I0
sg20
I508
sg21
I0
sg22
I0
sg23
I305
sg24
I0
sbssg25
S'A\x1d,\x13-+\xd4$\x86 J\xc6\x15\\#\xee'
p1346
ssS'lib_python2_7_site-packages_django_contrib_admin_migrations_0001_initial'
p1347
(dp1348
g6
(dp1349
g8
S'lib_python2_7_site-packages_django_contrib_admin_migrations_0001_initial.html'
p1350
sg10
S'lib/python2.7/site-packages/django/contrib/admin/migrations/0001_initial'
p1351
sg12
g13
(g14
g15
NtRp1352
(dp1353
g18
I1
sg19
I0
sg20
I7
sg21
I0
sg22
I0
sg23
I0
sg24
I0
sbssg25
S'\x9f\x95\x98\x9aKZu\x90\xbf\xd4T[\xcc5\xf3\xa3'
p1354
ssS'lib_python2_7_site-packages_django_contrib_auth_migrations___init__'
p1355
(dp1356
g6
(dp1357
g8
S'lib_python2_7_site-packages_django_contrib_auth_migrations___init__.html'
p1358
sg10
S'lib/python2.7/site-packages/django/contrib/auth/migrations/__init__'
p1359
sg12
g13
(g14
g15
NtRp1360
(dp1361
g18
I1
sg19
I0
sg20
I0
sg21
I0
sg22
I0
sg23
I0
sg24
I0
sbssg25
S'\xb0\xc8pN\xaf>\xa0\xbaz\x144\xe0A9\xb8?'
p1362
ssS'lib_python2_7_site-packages_django_contrib_messages___init__'
p1363
(dp1364
g6
(dp1365
g8
S'lib_python2_7_site-packages_django_contrib_messages___init__.html'
p1366
sg10
S'lib/python2.7/site-packages/django/contrib/messages/__init__'
p1367
sg12
g13
(g14
g15
NtRp1368
(dp1369
g18
I1
sg19
I0
sg20
I3
sg21
I0
sg22
I0
sg23
I0
sg24
I0
sbssg25
S'=\xbb\xec\x1b\xf4\xe6$\xf7Z\x0b\xa8\xdf\x11\x1c\xd3\xfa'
p1370
ssS'lib_python2_7_site-packages_django_contrib_auth_migrations_0001_initial'
p1371
(dp1372
g6
(dp1373
g8
S'lib_python2_7_site-packages_django_contrib_auth_migrations_0001_initial.html'
p1374
sg10
S'lib/python2.7/site-packages/django/contrib/auth/migrations/0001_initial'
p1375
sg12
g13
(g14
g15
NtRp1376
(dp1377
g18
I1
sg19
I0
sg20
I8
sg21
I0
sg22
I0
sg23
I0
sg24
I0
sbssg25
S'\xf7\x14\xedF\x92\xb7\x9fU\n>!o\xe8+_\x17'
p1378
ssS'lib_python2_7_site-packages_django_db_backends_sqlite3_base'
p1379
(dp1380
g6
(dp1381
g8
S'lib_python2_7_site-packages_django_db_backends_sqlite3_base.html'
p1382
sg10
S'lib/python2.7/site-packages/django/db/backends/sqlite3/base'
p1383
sg12
g13
(g14
g15
NtRp1384
(dp1385
g18
I1
sg19
I0
sg20
I218
sg21
I0
sg22
I0
sg23
I98
sg24
I0
sbssg25
S'\xa7\x02M\xfe\x1d\xe2Ho\xd5\xceWl>\xf3\x13\xb0'
p1386
ssS'lib_python2_7_site-packages_django_db_backends_base_features'
p1387
(dp1388
g6
(dp1389
g8
S'lib_python2_7_site-packages_django_db_backends_base_features.html'
p1390
sg10
S'lib/python2.7/site-packages/django/db/backends/base/features'
p1391
sg12
g13
(g14
g15
NtRp1392
(dp1393
g18
I1
sg19
I0
sg20
I97
sg21
I0
sg22
I0
sg23
I18
sg24
I0
sbssg25
S'Ny^\xaa\x05\x8c\x0e\xab~\x9f\x8cJWDIy'
p1394
ssS'manage'
p1395
(dp1396
g6
(dp1397
g8
S'manage.html'
p1398
sg10
g1395
sg12
g13
(g14
g15
NtRp1399
(dp1400
g18
I1
sg19
I0
sg20
I6
sg21
I0
sg22
I0
sg23
I0
sg24
I0
sbssg25
S'\x82\xdc9r\x04\xb9,\xa90F\xe0\x8e\x8e8B\x16'
p1401
ssS'lib_python2_7_site-packages_django_utils_termcolors'
p1402
(dp1403
g6
(dp1404
g8
S'lib_python2_7_site-packages_django_utils_termcolors.html'
p1405
sg10
S'lib/python2.7/site-packages/django/utils/termcolors'
p1406
sg12
g13
(g14
g15
NtRp1407
(dp1408
g18
I1
sg19
I0
sg20
I57
sg21
I0
sg22
I0
sg23
I22
sg24
I0
sbssg25
S':\xa2v\x01\xb3_]/N\xd3\x12\xd2\xa3\x82\xbar'
p1409
ssS'lib_python2_7_site-packages_django_contrib_contenttypes_forms'
p1410
(dp1411
g6
(dp1412
g8
S'lib_python2_7_site-packages_django_contrib_contenttypes_forms.html'
p1413
sg10
S'lib/python2.7/site-packages/django/contrib/contenttypes/forms'
p1414
sg12
g13
(g14
g15
NtRp1415
(dp1416
g18
I1
sg19
I0
sg20
I38
sg21
I0
sg22
I0
sg23
I28
sg24
I0
sbssg25
S'\x16\x11\x0741\xa3\x85\xf5LL\xe8\x10\xaf\xb9\xce\xa0'
p1417
ssS'lib_python2_7_site-packages_django_views_decorators___init__'
p1418
(dp1419
g6
(dp1420
g8
S'lib_python2_7_site-packages_django_views_decorators___init__.html'
p1421
sg10
S'lib/python2.7/site-packages/django/views/decorators/__init__'
p1422
sg12
g13
(g14
g15
NtRp1423
(dp1424
g18
I1
sg19
I0
sg20
I0
sg21
I0
sg22
I0
sg23
I0
sg24
I0
sbssg25
S'\xb0\xc8pN\xaf>\xa0\xbaz\x144\xe0A9\xb8?'
p1425
ssS'wardens_migrations___init__'
p1426
(dp1427
g6
(dp1428
g8
S'wardens_migrations___init__.html'
p1429
sg10
S'wardens/migrations/__init__'
p1430
sg12
g13
(g14
g15
NtRp1431
(dp1432
g18
I1
sg19
I0
sg20
I0
sg21
I0
sg22
I0
sg23
I0
sg24
I0
sbssg25
S'\xb0\xc8pN\xaf>\xa0\xbaz\x144\xe0A9\xb8?'
p1433
ssS'lib_python2_7_site-packages_django_core_management___init__'
p1434
(dp1435
g6
(dp1436
g8
S'lib_python2_7_site-packages_django_core_management___init__.html'
p1437
sg10
S'lib/python2.7/site-packages/django/core/management/__init__'
p1438
sg12
g13
(g14
g15
NtRp1439
(dp1440
g18
I1
sg19
I0
sg20
I167
sg21
I0
sg22
I0
sg23
I84
sg24
I0
sbssg25
S'4\x98-LLb{h\x8b\xc2\xb9\x01nF\x8d\x8d'
p1441
ssS'lib_python2_7_site-packages_django_core_wsgi'
p1442
(dp1443
g6
(dp1444
g8
S'lib_python2_7_site-packages_django_core_wsgi.html'
p1445
sg10
S'lib/python2.7/site-packages/django/core/wsgi'
p1446
sg12
g13
(g14
g15
NtRp1447
(dp1448
g18
I1
sg19
I0
sg20
I5
sg21
I0
sg22
I0
sg23
I2
sg24
I0
sbssg25
S'\xf1tQ4\xb0\x8f=\xf6P\xf8\xaaM\xd0\x17\r9'
p1449
ssS'lib_python2_7_site-packages_django_core_mail_message'
p1450
(dp1451
g6
(dp1452
g8
S'lib_python2_7_site-packages_django_core_mail_message.html'
p1453
sg10
S'lib/python2.7/site-packages/django/core/mail/message'
p1454
sg12
g13
(g14
g15
NtRp1455
(dp1456
g18
I1
sg19
I0
sg20
I252
sg21
I0
sg22
I0
sg23
I192
sg24
I0
sbssg25
S"\x15\xa5'9i<e\x1e\xa7\xce\xfd\x94z\xa4-("
p1457
ssS'lib_python2_7_site-packages_django_core_management_commands___init__'
p1458
(dp1459
g6
(dp1460
g8
S'lib_python2_7_site-packages_django_core_management_commands___init__.html'
p1461
sg10
S'lib/python2.7/site-packages/django/core/management/commands/__init__'
p1462
sg12
g13
(g14
g15
NtRp1463
(dp1464
g18
I1
sg19
I0
sg20
I0
sg21
I0
sg22
I0
sg23
I0
sg24
I0
sbssg25
S'\xb0\xc8pN\xaf>\xa0\xbaz\x144\xe0A9\xb8?'
p1465
ssS'lib_python2_7_site-packages_django_db_models_aggregates'
p1466
(dp1467
g6
(dp1468
g8
S'lib_python2_7_site-packages_django_db_models_aggregates.html'
p1469
sg10
S'lib/python2.7/site-packages/django/db/models/aggregates'
p1470
sg12
g13
(g14
g15
NtRp1471
(dp1472
g18
I1
sg19
I0
sg20
I87
sg21
I0
sg22
I0
sg23
I44
sg24
I0
sbssg25
S'-\x1ab\xf0ehfw4\xe9u\x9a\xda\x11\x05\x10'
p1473
ssS'wardenslog_settings'
p1474
(dp1475
g6
(dp1476
g8
S'wardenslog_settings.html'
p1477
sg10
S'wardenslog/settings'
p1478
sg12
g13
(g14
g15
NtRp1479
(dp1480
g18
I1
sg19
I0
sg20
I21
sg21
I0
sg22
I0
sg23
I0
sg24
I0
sbssg25
S'"\x16\x88#k\xed\xd5\xab\xd9\x90w\xe9\x02(\x16\xae'
p1481
ssS'lib_python2_7_site-packages_django_db_models_manager'
p1482
(dp1483
g6
(dp1484
g8
S'lib_python2_7_site-packages_django_db_models_manager.html'
p1485
sg10
S'lib/python2.7/site-packages/django/db/models/manager'
p1486
sg12
g13
(g14
g15
NtRp1487
(dp1488
g18
I1
sg19
I0
sg20
I151
sg21
I0
sg22
I0
sg23
I22
sg24
I0
sbssg25
S'\xc3?\x9eg\x1a<\xba\x0bUg\x8d\x03\x8f=t\xd9'
p1489
ssS'lib_python2_7_site-packages_django_db_migrations_topological_sort'
p1490
(dp1491
g6
(dp1492
g8
S'lib_python2_7_site-packages_django_db_migrations_topological_sort.html'
p1493
sg10
S'lib/python2.7/site-packages/django/db/migrations/topological_sort'
p1494
sg12
g13
(g14
g15
NtRp1495
(dp1496
g18
I1
sg19
I0
sg20
I15
sg21
I0
sg22
I0
sg23
I13
sg24
I0
sbssg25
S'0\xb0\xf3\xcd\xb6rqA\x00\x06\xb9\xb6\x06\x04\x10\xb3'
p1497
ssS'lib_python2_7_site-packages_django_template___init__'
p1498
(dp1499
g6
(dp1500
g8
S'lib_python2_7_site-packages_django_template___init__.html'
p1501
sg10
S'lib/python2.7/site-packages/django/template/__init__'
p1502
sg12
g13
(g14
g15
NtRp1503
(dp1504
g18
I1
sg19
I0
sg20
I10
sg21
I0
sg22
I0
sg23
I0
sg24
I0
sbssg25
S'\x06\\{md\xd6\x92?q\xff\xeb\xd3\xc2A\x0f)'
p1505
ssS'wardens_migrations_0009_auto_20160728_1301'
p1506
(dp1507
g6
(dp1508
g8
S'wardens_migrations_0009_auto_20160728_1301.html'
p1509
sg10
S'wardens/migrations/0009_auto_20160728_1301'
p1510
sg12
g13
(g14
g15
NtRp1511
(dp1512
g18
I1
sg19
I0
sg20
I5
sg21
I0
sg22
I0
sg23
I0
sg24
I0
sbssg25
S'&\xc50\x19\x8d\x18\x90:\xa5\xebP\xa8\xa3\xad\xe6\xa4'
p1513
ssS'wardens_migrations_0006_auto_20160728_1251'
p1514
(dp1515
g6
(dp1516
g8
S'wardens_migrations_0006_auto_20160728_1251.html'
p1517
sg10
S'wardens/migrations/0006_auto_20160728_1251'
p1518
sg12
g13
(g14
g15
NtRp1519
(dp1520
g18
I1
sg19
I0
sg20
I5
sg21
I0
sg22
I0
sg23
I0
sg24
I0
sbssg25
S'p\x14\x05h\xf9\xae\x96\xcc9d#\xdd7\x97\x1ci'
p1521
ssS'lib_python2_7_site-packages_django_db_migrations_loader'
p1522
(dp1523
g6
(dp1524
g8
S'lib_python2_7_site-packages_django_db_migrations_loader.html'
p1525
sg10
S'lib/python2.7/site-packages/django/db/migrations/loader'
p1526
sg12
g13
(g14
g15
NtRp1527
(dp1528
g18
I1
sg19
I0
sg20
I201
sg21
I0
sg22
I0
sg23
I85
sg24
I0
sbssg25
S'M\xa9\x8b}\x03\xdd\xdb\xcd4/\xd8\xe8q\xe6E#'
p1529
ssS'wardens_migrations_0005_auto_20160728_1245'
p1530
(dp1531
g6
(dp1532
g8
S'wardens_migrations_0005_auto_20160728_1245.html'
p1533
sg10
S'wardens/migrations/0005_auto_20160728_1245'
p1534
sg12
g13
(g14
g15
NtRp1535
(dp1536
g18
I1
sg19
I0
sg20
I5
sg21
I0
sg22
I0
sg23
I0
sg24
I0
sbssg25
S'\xee\x8a\xe0\xb2\xef\xd9%\xb2}3\x9c\x06p\xb8!\x01'
p1537
ssS'lib_python2_7_site-packages_django_db_migrations_migration'
p1538
(dp1539
g6
(dp1540
g8
S'lib_python2_7_site-packages_django_db_migrations_migration.html'
p1541
sg10
S'lib/python2.7/site-packages/django/db/migrations/migration'
p1542
sg12
g13
(g14
g15
NtRp1543
(dp1544
g18
I1
sg19
I0
sg20
I82
sg21
I0
sg22
I0
sg23
I34
sg24
I0
sbssg25
S'\x0eZz0h\xb7\xd8\x95\x95\x8f\xc1\x0f\x7f\x9c\xec2'
p1545
ssS'lib_python2_7_site-packages_django_db_backends_utils'
p1546
(dp1547
g6
(dp1548
g8
S'lib_python2_7_site-packages_django_db_backends_utils.html'
p1549
sg10
S'lib/python2.7/site-packages/django/db/backends/utils'
p1550
sg12
g13
(g14
g15
NtRp1551
(dp1552
g18
I1
sg19
I0
sg20
I128
sg21
I0
sg22
I0
sg23
I82
sg24
I0
sbssg25
S'\x8d\xc0\xf3\xdf\x1aXww\x1e\x12\xbc\x9aq\xd1\x11\xc2'
p1553
ssS'lib_python2_7_site-packages_django_core_cache_backends_db'
p1554
(dp1555
g6
(dp1556
g8
S'lib_python2_7_site-packages_django_core_cache_backends_db.html'
p1557
sg10
S'lib/python2.7/site-packages/django/core/cache/backends/db'
p1558
sg12
g13
(g14
g15
NtRp1559
(dp1560
g18
I1
sg19
I0
sg20
I133
sg21
I0
sg22
I0
sg23
I110
sg24
I0
sbssg25
S'\xa4\x1dm\x9c\xa7\xcbv\xed\xdaj\x10\xae\x01\xfd\x02\x91'
p1561
ssS'lib_python2_7_site-packages_django_http_multipartparser'
p1562
(dp1563
g6
(dp1564
g8
S'lib_python2_7_site-packages_django_http_multipartparser.html'
p1565
sg10
S'lib/python2.7/site-packages/django/http/multipartparser'
p1566
sg12
g13
(g14
g15
NtRp1567
(dp1568
g18
I1
sg19
I0
sg20
I368
sg21
I0
sg22
I0
sg23
I311
sg24
I0
sbssg25
S'<^\x87I\xa8\x83\xa2\xda\xd2\\\x81\xf5\x9d\x11\\\x13'
p1569
ssS'lib_python2_7_site-packages_django_template_backends___init__'
p1570
(dp1571
g6
(dp1572
g8
S'lib_python2_7_site-packages_django_template_backends___init__.html'
p1573
sg10
S'lib/python2.7/site-packages/django/template/backends/__init__'
p1574
sg12
g13
(g14
g15
NtRp1575
(dp1576
g18
I1
sg19
I0
sg20
I0
sg21
I0
sg22
I0
sg23
I0
sg24
I0
sbssg25
S'\xb0\xc8pN\xaf>\xa0\xbaz\x144\xe0A9\xb8?'
p1577
ssS'lib_python2_7_site-packages_django_contrib_auth_migrations_0005_alter_user_last_login_null'
p1578
(dp1579
g6
(dp1580
g8
S'lib_python2_7_site-packages_django_contrib_auth_migrations_0005_alter_user_last_login_null.html'
p1581
sg10
S'lib/python2.7/site-packages/django/contrib/auth/migrations/0005_alter_user_last_login_null'
p1582
sg12
g13
(g14
g15
NtRp1583
(dp1584
g18
I1
sg19
I0
sg20
I5
sg21
I0
sg22
I0
sg23
I0
sg24
I0
sbssg25
S'H\xfc\xdbs)73\x9c\xf3\xb3\xd9\x0f\xfd=\xa5_'
p1585
ssS'lib_python2_7_site-packages_django_contrib_sites___init__'
p1586
(dp1587
g6
(dp1588
g8
S'lib_python2_7_site-packages_django_contrib_sites___init__.html'
p1589
sg10
S'lib/python2.7/site-packages/django/contrib/sites/__init__'
p1590
sg12
g13
(g14
g15
NtRp1591
(dp1592
g18
I1
sg19
I0
sg20
I1
sg21
I0
sg22
I0
sg23
I0
sg24
I0
sbssg25
S'\x93\xb7\xc1\xce{;\x9a\xad\x93U\x0cm\xf2\xbc\xd0v'
p1593
ssS'lib_python2_7_site-packages_django_utils__os'
p1594
(dp1595
g6
(dp1596
g8
S'lib_python2_7_site-packages_django_utils__os.html'
p1597
sg10
S'lib/python2.7/site-packages/django/utils/_os'
p1598
sg12
g13
(g14
g15
NtRp1599
(dp1600
g18
I1
sg19
I0
sg20
I60
sg21
I0
sg22
I0
sg23
I33
sg24
I0
sbssg25
S'?6\x0e\x00\x07\x1bD\xf8>\x90?@\x01\x1c&e'
p1601
ssS'wardens_migrations_0010_auto_20160728_1642'
p1602
(dp1603
g6
(dp1604
g8
S'wardens_migrations_0010_auto_20160728_1642.html'
p1605
sg10
S'wardens/migrations/0010_auto_20160728_1642'
p1606
sg12
g13
(g14
g15
NtRp1607
(dp1608
g18
I1
sg19
I0
sg20
I5
sg21
I0
sg22
I0
sg23
I0
sg24
I0
sbssg25
S'\xe9]"\x12\xdb\xb8\xc9\xef\x85\xd0\xa8\x81H\xa0.\xda'
p1609
ssS'lib_python2_7_site-packages_django_db_migrations_optimizer'
p1610
(dp1611
g6
(dp1612
g8
S'lib_python2_7_site-packages_django_db_migrations_optimizer.html'
p1613
sg10
S'lib/python2.7/site-packages/django/db/migrations/optimizer'
p1614
sg12
g13
(g14
g15
NtRp1615
(dp1616
g18
I1
sg19
I0
sg20
I99
sg21
I0
sg22
I0
sg23
I75
sg24
I0
sbssg25
S'\xc0\xc35U\x81\x02\xcfW\x8f\xd4\xeab\xca\xf0\xc3c'
p1617
ssS'lib_python2_7_site-packages_django_db_models_lookups'
p1618
(dp1619
g6
(dp1620
g8
S'lib_python2_7_site-packages_django_db_models_lookups.html'
p1621
sg10
S'lib/python2.7/site-packages/django/db/models/lookups'
p1622
sg12
g13
(g14
g15
NtRp1623
(dp1624
g18
I1
sg19
I0
sg20
I341
sg21
I0
sg22
I0
sg23
I145
sg24
I0
sbssg25
S'\xb6\xdc\xc7\x19\xc8\xf3ef,<\xc6\xe5"0\xdc['
p1625
ssS'lib_python2_7_site-packages_django_contrib_admin_options'
p1626
(dp1627
g6
(dp1628
g8
S'lib_python2_7_site-packages_django_contrib_admin_options.html'
p1629
sg10
S'lib/python2.7/site-packages/django/contrib/admin/options'
p1630
sg12
g13
(g14
g15
NtRp1631
(dp1632
g18
I1
sg19
I0
sg20
I994
sg21
I0
sg22
I0
sg23
I777
sg24
I0
sbssg25
S'\xb3\xc3\xd6\x1e"\xb2\xf8\xdf1\xee8\xf2\x87\xdf\xec\x03'
p1633
ssS'lib_python2_7_site-packages_django_contrib_auth_models'
p1634
(dp1635
g6
(dp1636
g8
S'lib_python2_7_site-packages_django_contrib_auth_models.html'
p1637
sg10
S'lib/python2.7/site-packages/django/contrib/auth/models'
p1638
sg12
g13
(g14
g15
NtRp1639
(dp1640
g18
I1
sg19
I0
sg20
I249
sg21
I0
sg22
I0
sg23
I108
sg24
I0
sbssg25
S'^\x86H\xde\x8bQ\xae\xbd+?\xc7T\xc41\x81G'
p1641
ssS'lib_python2_7_site-packages_django_core_handlers_base'
p1642
(dp1643
g6
(dp1644
g8
S'lib_python2_7_site-packages_django_core_handlers_base.html'
p1645
sg10
S'lib/python2.7/site-packages/django/core/handlers/base'
p1646
sg12
g13
(g14
g15
NtRp1647
(dp1648
g18
I1
sg19
I0
sg20
I155
sg21
I0
sg22
I0
sg23
I131
sg24
I0
sbssg25
S'&\x91\x9b\xed|;\x80j\xb0\x92\xb6\x90\x83\xd5\x0cc'
p1649
ssS'lib_python2_7_site-packages_django_contrib_staticfiles_apps'
p1650
(dp1651
g6
(dp1652
g8
S'lib_python2_7_site-packages_django_contrib_staticfiles_apps.html'
p1653
sg10
S'lib/python2.7/site-packages/django/contrib/staticfiles/apps'
p1654
sg12
g13
(g14
g15
NtRp1655
(dp1656
g18
I1
sg19
I0
sg20
I5
sg21
I0
sg22
I0
sg23
I0
sg24
I0
sbssg25
S'e\x15Q\xe2\xc0,Q\x16\x80\xc7\x0eO8+\x980'
p1657
ssS'lib_python2_7_site-packages_django_db_models_fields_related'
p1658
(dp1659
g6
(dp1660
g8
S'lib_python2_7_site-packages_django_db_models_fields_related.html'
p1661
sg10
S'lib/python2.7/site-packages/django/db/models/fields/related'
p1662
sg12
g13
(g14
g15
NtRp1663
(dp1664
g18
I1
sg19
I0
sg20
I1310
sg21
I0
sg22
I0
sg23
I812
sg24
I0
sbssg25
S'\xbd\x04\x12\x95\xc8\x06\x18\xfc\x7f\x8e\xea\xdc\xb8\xda\x956'
p1665
ssS'lib_python2_7_site-packages_django_contrib_sessions_management___init__'
p1666
(dp1667
g6
(dp1668
g8
S'lib_python2_7_site-packages_django_contrib_sessions_management___init__.html'
p1669
sg10
S'lib/python2.7/site-packages/django/contrib/sessions/management/__init__'
p1670
sg12
g13
(g14
g15
NtRp1671
(dp1672
g18
I1
sg19
I0
sg20
I0
sg21
I0
sg22
I0
sg23
I0
sg24
I0
sbssg25
S'\xb0\xc8pN\xaf>\xa0\xbaz\x144\xe0A9\xb8?'
p1673
ssS'lib_python2_7_site-packages_django_core_management_base'
p1674
(dp1675
g6
(dp1676
g8
S'lib_python2_7_site-packages_django_core_management_base.html'
p1677
sg10
S'lib/python2.7/site-packages/django/core/management/base'
p1678
sg12
g13
(g14
g15
NtRp1679
(dp1680
g18
I1
sg19
I0
sg20
I252
sg21
I0
sg22
I0
sg23
I120
sg24
I0
sbssg25
S'\x8b\x8e]\x84\x02\x0f\x8f\xb0!\xda\xbd\xb7\xa7\x13\xb7('
p1681
ssS'lib_python2_7_site-packages_django_core_management_commands_test'
p1682
(dp1683
g6
(dp1684
g8
S'lib_python2_7_site-packages_django_core_management_commands_test.html'
p1685
sg10
S'lib/python2.7/site-packages/django/core/management/commands/test'
p1686
sg12
g13
(g14
g15
NtRp1687
(dp1688
g18
I1
sg19
I0
sg20
I49
sg21
I0
sg22
I0
sg23
I6
sg24
I0
sbssg25
S'\x97\x12+\xb0p\xfeM\xde\xe9\xf3d\x14\xb6pV:'
p1689
ssS'lib_python2_7_site-packages_django_contrib_auth_migrations_0003_alter_user_email_max_length'
p1690
(dp1691
g6
(dp1692
g8
S'lib_python2_7_site-packages_django_contrib_auth_migrations_0003_alter_user_email_max_length.html'
p1693
sg10
S'lib/python2.7/site-packages/django/contrib/auth/migrations/0003_alter_user_email_max_length'
p1694
sg12
g13
(g14
g15
NtRp1695
(dp1696
g18
I1
sg19
I0
sg20
I5
sg21
I0
sg22
I0
sg23
I0
sg24
I0
sbssg25
S'h~i\x05\xaf\xb4\xac\xe9.\xa9Z\xd2b\xc4q\xa2'
p1697
ssS'lib_python2_7_site-packages_django_forms___init__'
p1698
(dp1699
g6
(dp1700
g8
S'lib_python2_7_site-packages_django_forms___init__.html'
p1701
sg10
S'lib/python2.7/site-packages/django/forms/__init__'
p1702
sg12
g13
(g14
g15
NtRp1703
(dp1704
g18
I1
sg19
I0
sg20
I6
sg21
I0
sg22
I0
sg23
I0
sg24
I0
sbssg25
S'\xcf\x89\xf0\x10F\x0f#(jw\xcd\xab\x9bs\x14\x84'
p1705
ssS'lib_python2_7_site-packages_django_conf_global_settings'
p1706
(dp1707
g6
(dp1708
g8
S'lib_python2_7_site-packages_django_conf_global_settings.html'
p1709
sg10
S'lib/python2.7/site-packages/django/conf/global_settings'
p1710
sg12
g13
(g14
g15
NtRp1711
(dp1712
g18
I1
sg19
I0
sg20
I136
sg21
I0
sg22
I0
sg23
I0
sg24
I0
sbssg25
S'\x97t\x0c\x11\xd5\x81\xadm\xd1\xa1\x1d\x17cU\xc7\xfb'
p1713
ssS'lib_python2_7_site-packages_django_core_files_storage'
p1714
(dp1715
g6
(dp1716
g8
S'lib_python2_7_site-packages_django_core_files_storage.html'
p1717
sg10
S'lib/python2.7/site-packages/django/core/files/storage'
p1718
sg12
g13
(g14
g15
NtRp1719
(dp1720
g18
I1
sg19
I0
sg20
I165
sg21
I0
sg22
I0
sg23
I114
sg24
I0
sbssg25
S'%Ct\x970\xbf\xd3\xa1R\xf0\x91\x8e0\xaf\x91['
p1721
ssS'lib_python2_7_site-packages_django_contrib_contenttypes_migrations_0001_initial'
p1722
(dp1723
g6
(dp1724
g8
S'lib_python2_7_site-packages_django_contrib_contenttypes_migrations_0001_initial.html'
p1725
sg10
S'lib/python2.7/site-packages/django/contrib/contenttypes/migrations/0001_initial'
p1726
sg12
g13
(g14
g15
NtRp1727
(dp1728
g18
I1
sg19
I0
sg20
I6
sg21
I0
sg22
I0
sg23
I0
sg24
I0
sbssg25
S'\xb6Z\t\xcc\xf6\xb1\xa7\x8fu\x9a|\xe737\x1d\xbf'
p1729
ssS'lib_python2_7_site-packages_django_core_checks_security_sessions'
p1730
(dp1731
g6
(dp1732
g8
S'lib_python2_7_site-packages_django_core_checks_security_sessions.html'
p1733
sg10
S'lib/python2.7/site-packages/django/core/checks/security/sessions'
p1734
sg12
g13
(g14
g15
NtRp1735
(dp1736
g18
I1
sg19
I0
sg20
I36
sg21
I0
sg22
I0
sg23
I20
sg24
I0
sbssg25
S'\xebH\xfb\xd9\xa5)6x\xdd\x1e\x86\x06\xb3o\x9a+'
p1737
ssS'lib_python2_7_site-packages_django_dispatch___init__'
p1738
(dp1739
g6
(dp1740
g8
S'lib_python2_7_site-packages_django_dispatch___init__.html'
p1741
sg10
S'lib/python2.7/site-packages/django/dispatch/__init__'
p1742
sg12
g13
(g14
g15
NtRp1743
(dp1744
g18
I1
sg19
I0
sg20
I1
sg21
I0
sg22
I0
sg23
I0
sg24
I0
sbssg25
S'\xa7>\xfc]\xa2\xc8\x97\x0b\xfb2\xef\xeep\xb7\xed\x99'
p1745
ssS'lib_python2_7_site-packages_django_core_management_commands_flush'
p1746
(dp1747
g6
(dp1748
g8
S'lib_python2_7_site-packages_django_core_management_commands_flush.html'
p1749
sg10
S'lib/python2.7/site-packages/django/core/management/commands/flush'
p1750
sg12
g13
(g14
g15
NtRp1751
(dp1752
g18
I1
sg19
I0
sg20
I59
sg21
I0
sg22
I0
sg23
I11
sg24
I0
sbssg25
S'\xc1P\x9c\xa2\xab\x96\xe8Tm\x96\x86\xcfo\xef\xd8\xcf'
p1753
ssS'lib_python2_7_site-packages_django_utils_regex_helper'
p1754
(dp1755
g6
(dp1756
g8
S'lib_python2_7_site-packages_django_utils_regex_helper.html'
p1757
sg10
S'lib/python2.7/site-packages/django/utils/regex_helper'
p1758
sg12
g13
(g14
g15
NtRp1759
(dp1760
g18
I1
sg19
I0
sg20
I188
sg21
I0
sg22
I0
sg23
I175
sg24
I0
sbssg25
S'\x7f\xc3\xca\xd0z\xdfHl\xc2\x02A\x94\xcde~\x01'
p1761
ssS'lib_python2_7_site-packages_django_db_backends_sqlite3_introspection'
p1762
(dp1763
g6
(dp1764
g8
S'lib_python2_7_site-packages_django_db_backends_sqlite3_introspection.html'
p1765
sg10
S'lib/python2.7/site-packages/django/db/backends/sqlite3/introspection'
p1766
sg12
g13
(g14
g15
NtRp1767
(dp1768
g18
I1
sg19
I0
sg20
I120
sg21
I0
sg22
I0
sg23
I100
sg24
I0
sbssg25
S"\x14\x8fF\x87S7!'\x8b\\\x066\xbey!\xa0"
p1769
ssS'lib_python2_7_site-packages_django_db_migrations_graph'
p1770
(dp1771
g6
(dp1772
g8
S'lib_python2_7_site-packages_django_db_migrations_graph.html'
p1773
sg10
S'lib/python2.7/site-packages/django/db/migrations/graph'
p1774
sg12
g13
(g14
g15
NtRp1775
(dp1776
g18
I1
sg19
I0
sg20
I141
sg21
I0
sg22
I0
sg23
I44
sg24
I0
sbssg25
S'H\xafH\xf6\x8c\xd3\xd9\xfc\xcf\xe0FB\x88i\xde\xe4'
p1777
ssS'lib_python2_7_site-packages_django_contrib_contenttypes_migrations_0002_remove_content_type_name'
p1778
(dp1779
g6
(dp1780
g8
S'lib_python2_7_site-packages_django_contrib_contenttypes_migrations_0002_remove_content_type_name.html'
p1781
sg10
S'lib/python2.7/site-packages/django/contrib/contenttypes/migrations/0002_remove_content_type_name'
p1782
sg12
g13
(g14
g15
NtRp1783
(dp1784
g18
I1
sg19
I0
sg20
I13
sg21
I0
sg22
I0
sg23
I7
sg24
I0
sbssg25
S'\xeb\xc4\xb9d\x13\xee\xaa\xf4\xaap\xeckG\xd1\xccq'
p1785
ssS'lib_python2_7_site-packages_django_core_files___init__'
p1786
(dp1787
g6
(dp1788
g8
S'lib_python2_7_site-packages_django_core_files___init__.html'
p1789
sg10
S'lib/python2.7/site-packages/django/core/files/__init__'
p1790
sg12
g13
(g14
g15
NtRp1791
(dp1792
g18
I1
sg19
I0
sg20
I2
sg21
I0
sg22
I0
sg23
I0
sg24
I0
sbssg25
S'i\xe6\xf12\xa4X\xf0\xf2?\x9aZ\xbb&\xa6\x1f^'
p1793
ssS'lib_python2_7_site-packages_django_utils_timesince'
p1794
(dp1795
g6
(dp1796
g8
S'lib_python2_7_site-packages_django_utils_timesince.html'
p1797
sg10
S'lib/python2.7/site-packages/django/utils/timesince'
p1798
sg12
g13
(g14
g15
NtRp1799
(dp1800
g18
I1
sg19
I0
sg20
I30
sg21
I0
sg22
I0
sg23
I22
sg24
I0
sbssg25
S'\xda)\xf1Sq?\xe7\xf6\xcbD\xc2c\xff\xe9\\\xd7'
p1801
ssS'wardens_migrations_0011_auto_20160728_1644'
p1802
(dp1803
g6
(dp1804
g8
S'wardens_migrations_0011_auto_20160728_1644.html'
p1805
sg10
S'wardens/migrations/0011_auto_20160728_1644'
p1806
sg12
g13
(g14
g15
NtRp1807
(dp1808
g18
I1
sg19
I0
sg20
I5
sg21
I0
sg22
I0
sg23
I0
sg24
I0
sbssg25
S'\xd2\naa\xe2\xc3\xd3\xadIa\xb9\xa1\xb5\x12\xc3P'
p1809
ssS'lib_python2_7_site-packages_django_utils_itercompat'
p1810
(dp1811
g6
(dp1812
g8
S'lib_python2_7_site-packages_django_utils_itercompat.html'
p1813
sg10
S'lib/python2.7/site-packages/django/utils/itercompat'
p1814
sg12
g13
(g14
g15
NtRp1815
(dp1816
g18
I1
sg19
I0
sg20
I6
sg21
I0
sg22
I0
sg23
I5
sg24
I0
sbssg25
S'\xf2\x86\x14\xb9\xe2}\xd6\xa3\x9ar\xdb\x04\xdb\xcf\x11\xcb'
p1817
ssS'lib_python2_7_site-packages_django_utils_log'
p1818
(dp1819
g6
(dp1820
g8
S'lib_python2_7_site-packages_django_utils_log.html'
p1821
sg10
S'lib/python2.7/site-packages/django/utils/log'
p1822
sg12
g13
(g14
g15
NtRp1823
(dp1824
g18
I1
sg19
I0
sg20
I67
sg21
I0
sg22
I0
sg23
I28
sg24
I0
sbssg25
S'\xed\xc1B\x01c\x14\xd5kui[\xcf\x1b+k\x9a'
p1825
ssS'lib_python2_7_site-packages_django_test_client'
p1826
(dp1827
g6
(dp1828
g8
S'lib_python2_7_site-packages_django_test_client.html'
p1829
sg10
S'lib/python2.7/site-packages/django/test/client'
p1830
sg12
g13
(g14
g15
NtRp1831
(dp1832
g18
I1
sg19
I0
sg20
I315
sg21
I0
sg22
I0
sg23
I240
sg24
I0
sbssg25
S'\x12\x0e\x9c\x14\xa8\xf0J\x96;\xa9\xcbI\x979\xe9\xaf'
p1833
ssS'lib_python2_7_site-packages_django_middleware___init__'
p1834
(dp1835
g6
(dp1836
g8
S'lib_python2_7_site-packages_django_middleware___init__.html'
p1837
sg10
S'lib/python2.7/site-packages/django/middleware/__init__'
p1838
sg12
g13
(g14
g15
NtRp1839
(dp1840
g18
I1
sg19
I0
sg20
I0
sg21
I0
sg22
I0
sg23
I0
sg24
I0
sbssg25
S'\xb0\xc8pN\xaf>\xa0\xbaz\x144\xe0A9\xb8?'
p1841
ssS'lib_python2_7_site-packages_django_contrib_auth_management___init__'
p1842
(dp1843
g6
(dp1844
g8
S'lib_python2_7_site-packages_django_contrib_auth_management___init__.html'
p1845
sg10
S'lib/python2.7/site-packages/django/contrib/auth/management/__init__'
p1846
sg12
g13
(g14
g15
NtRp1847
(dp1848
g18
I1
sg19
I0
sg20
I88
sg21
I0
sg22
I0
sg23
I41
sg24
I0
sbssg25
S'n\xb1|G\xcc%$\x19w\x98b\x16(U\x95\x96'
p1849
ssS'lib_python2_7_site-packages_django_utils_datastructures'
p1850
(dp1851
g6
(dp1852
g8
S'lib_python2_7_site-packages_django_utils_datastructures.html'
p1853
sg10
S'lib/python2.7/site-packages/django/utils/datastructures'
p1854
sg12
g13
(g14
g15
NtRp1855
(dp1856
g18
I1
sg19
I0
sg20
I319
sg21
I0
sg22
I0
sg23
I190
sg24
I0
sbssg25
S'H\xbf\xe5\x8ds1\xa9c\xcepfZ\xa9\x818\x05'
p1857
ssS'lib_python2_7_site-packages_django_views_decorators_debug'
p1858
(dp1859
g6
(dp1860
g8
S'lib_python2_7_site-packages_django_views_decorators_debug.html'
p1861
sg10
S'lib/python2.7/site-packages/django/views/decorators/debug'
p1862
sg12
g13
(g14
g15
NtRp1863
(dp1864
g18
I1
sg19
I0
sg20
I21
sg21
I0
sg22
I0
sg23
I13
sg24
I0
sbssg25
S'%\x95J\xd11\x82{ay\x0ep\xc46\xc8\xbcB'
p1865
ssS'lib_python2_7_site-packages_django_views___init__'
p1866
(dp1867
g6
(dp1868
g8
S'lib_python2_7_site-packages_django_views___init__.html'
p1869
sg10
S'lib/python2.7/site-packages/django/views/__init__'
p1870
sg12
g13
(g14
g15
NtRp1871
(dp1872
g18
I1
sg19
I0
sg20
I0
sg21
I0
sg22
I0
sg23
I0
sg24
I0
sbssg25
S'\xb0\xc8pN\xaf>\xa0\xbaz\x144\xe0A9\xb8?'
p1873
ssS'lib_python2_7_site-packages_django_test_testcases'
p1874
(dp1875
g6
(dp1876
g8
S'lib_python2_7_site-packages_django_test_testcases.html'
p1877
sg10
S'lib/python2.7/site-packages/django/test/testcases'
p1878
sg12
g13
(g14
g15
NtRp1879
(dp1880
g18
I1
sg19
I0
sg20
I643
sg21
I0
sg22
I0
sg23
I500
sg24
I0
sbssg25
S'5w\xd3\xeb\xc5\x840\xa8\xa6\xa2\x99\xee\xed\x1b\xaa.'
p1881
ssS'lib_python2_7_site-packages_django_contrib_messages_storage___init__'
p1882
(dp1883
g6
(dp1884
g8
S'lib_python2_7_site-packages_django_contrib_messages_storage___init__.html'
p1885
sg10
S'lib/python2.7/site-packages/django/contrib/messages/storage/__init__'
p1886
sg12
g13
(g14
g15
NtRp1887
(dp1888
g18
I1
sg19
I0
sg20
I4
sg21
I0
sg22
I0
sg23
I1
sg24
I0
sbssg25
S'\xd1\xd5Ds\xddZX8\n?\xd6N"\x0e\xc9\x9c'
p1889
ssS'lib_python2_7_site-packages_django_contrib_auth_migrations_0002_alter_permission_name_max_length'
p1890
(dp1891
g6
(dp1892
g8
S'lib_python2_7_site-packages_django_contrib_auth_migrations_0002_alter_permission_name_max_length.html'
p1893
sg10
S'lib/python2.7/site-packages/django/contrib/auth/migrations/0002_alter_permission_name_max_length'
p1894
sg12
g13
(g14
g15
NtRp1895
(dp1896
g18
I1
sg19
I0
sg20
I5
sg21
I0
sg22
I0
sg23
I0
sg24
I0
sbssg25
S'1w.x\xdcK\xcb\x07\xb6\x8a\xf4\x83}\nQY'
p1897
ssS'wardens_migrations_0002_auto_20160721_1647'
p1898
(dp1899
g6
(dp1900
g8
S'wardens_migrations_0002_auto_20160721_1647.html'
p1901
sg10
S'wardens/migrations/0002_auto_20160721_1647'
p1902
sg12
g13
(g14
g15
NtRp1903
(dp1904
g18
I1
sg19
I0
sg20
I7
sg21
I0
sg22
I0
sg23
I0
sg24
I0
sbssg25
S'\xb6t\x1f]@\xc4\xb7\x9c\t\x8bnLe:\x82\xad'
p1905
ssS'lib_python2_7_site-packages_django_contrib_sessions_migrations_0001_initial'
p1906
(dp1907
g6
(dp1908
g8
S'lib_python2_7_site-packages_django_contrib_sessions_migrations_0001_initial.html'
p1909
sg10
S'lib/python2.7/site-packages/django/contrib/sessions/migrations/0001_initial'
p1910
sg12
g13
(g14
g15
NtRp1911
(dp1912
g18
I1
sg19
I0
sg20
I6
sg21
I0
sg22
I0
sg23
I0
sg24
I0
sbssg25
S'\xa3"\x9c\x7f\xa3\xf10i%`\xb2\xae\xafT\xae\x96'
p1913
ssS'lib_python2_7_site-packages_django_db_models_sql_constants'
p1914
(dp1915
g6
(dp1916
g8
S'lib_python2_7_site-packages_django_db_models_sql_constants.html'
p1917
sg10
S'lib/python2.7/site-packages/django/db/models/sql/constants'
p1918
sg12
g13
(g14
g15
NtRp1919
(dp1920
g18
I1
sg19
I0
sg20
I11
sg21
I0
sg22
I0
sg23
I0
sg24
I0
sbssg25
S'\xea9\xbf\xc9ZC@Iim\x07\xfd6\x8aE\x91'
p1921
ssS'lib_python2_7_site-packages_django_contrib_sites_shortcuts'
p1922
(dp1923
g6
(dp1924
g8
S'lib_python2_7_site-packages_django_contrib_sites_shortcuts.html'
p1925
sg10
S'lib/python2.7/site-packages/django/contrib/sites/shortcuts'
p1926
sg12
g13
(g14
g15
NtRp1927
(dp1928
g18
I1
sg19
I0
sg20
I8
sg21
I0
sg22
I0
sg23
I5
sg24
I0
sbssg25
S'\xf5\x9b$[G\x9a"\x80\xe8\x81\x1f\xb9\xcf\xd0YB'
p1929
ssS'lib_python2_7_site-packages_django_forms_models'
p1930
(dp1931
g6
(dp1932
g8
S'lib_python2_7_site-packages_django_forms_models.html'
p1933
sg10
S'lib/python2.7/site-packages/django/forms/models'
p1934
sg12
g13
(g14
g15
NtRp1935
(dp1936
g18
I1
sg19
I0
sg20
I679
sg21
I0
sg22
I0
sg23
I504
sg24
I0
sbssg25
S'\x0f\x88\xdfZ\xd6\xc3$\xb6\x1d\x13\xb0\xa2\xff*+p'
p1937
ssS'lib_python2_7_site-packages_django_template_base'
p1938
(dp1939
g6
(dp1940
g8
S'lib_python2_7_site-packages_django_template_base.html'
p1941
sg10
S'lib/python2.7/site-packages/django/template/base'
p1942
sg12
g13
(g14
g15
NtRp1943
(dp1944
g18
I1
sg19
I0
sg20
I786
sg21
I0
sg22
I0
sg23
I568
sg24
I0
sbssg25
S'\xc4\xfb\x89S{\x80_\xbe\xa5\xff\x8fD\xb3\xde\xae\x1b'
p1945
ssS'lib_python2_7_site-packages_django_core_handlers_wsgi'
p1946
(dp1947
g6
(dp1948
g8
S'lib_python2_7_site-packages_django_core_handlers_wsgi.html'
p1949
sg10
S'lib/python2.7/site-packages/django/core/handlers/wsgi'
p1950
sg12
g13
(g14
g15
NtRp1951
(dp1952
g18
I1
sg19
I0
sg20
I161
sg21
I0
sg22
I0
sg23
I116
sg24
I0
sbssg25
S'\x15\xab\xf9\x1b%\xe8\x98\xfa\x82\xe7\x86\xbf\x1c\x9a%\x93'
p1953
ssS'lib_python2_7_site-packages_django_core_paginator'
p1954
(dp1955
g6
(dp1956
g8
S'lib_python2_7_site-packages_django_core_paginator.html'
p1957
sg10
S'lib/python2.7/site-packages/django/core/paginator'
p1958
sg12
g13
(g14
g15
NtRp1959
(dp1960
g18
I1
sg19
I0
sg20
I90
sg21
I0
sg22
I0
sg23
I57
sg24
I0
sbssg25
S'\x9b\rH\xc5\xb0\x92P\x1a\xec\x08b(\xa0W\xb6\x0e'
p1961
ssS'lib_python2_7_site-packages_django_db_backends_sqlite3___init__'
p1962
(dp1963
g6
(dp1964
g8
S'lib_python2_7_site-packages_django_db_backends_sqlite3___init__.html'
p1965
sg10
S'lib/python2.7/site-packages/django/db/backends/sqlite3/__init__'
p1966
sg12
g13
(g14
g15
NtRp1967
(dp1968
g18
I1
sg19
I0
sg20
I0
sg21
I0
sg22
I0
sg23
I0
sg24
I0
sbssg25
S'\xb0\xc8pN\xaf>\xa0\xbaz\x144\xe0A9\xb8?'
p1969
ssS'lib_python2_7_site-packages_django_contrib_auth_migrations_0006_require_contenttypes_0002'
p1970
(dp1971
g6
(dp1972
g8
S'lib_python2_7_site-packages_django_contrib_auth_migrations_0006_require_contenttypes_0002.html'
p1973
sg10
S'lib/python2.7/site-packages/django/contrib/auth/migrations/0006_require_contenttypes_0002'
p1974
sg12
g13
(g14
g15
NtRp1975
(dp1976
g18
I1
sg19
I0
sg20
I5
sg21
I0
sg22
I0
sg23
I0
sg24
I0
sbssg25
S'\xcd\xb9\xeet\x16?\xc1l\x18\xb7\x14\xe6\x0e\xcd+='
p1977
ssS'lib_python2_7_site-packages_django_core_checks_registry'
p1978
(dp1979
g6
(dp1980
g8
S'lib_python2_7_site-packages_django_core_checks_registry.html'
p1981
sg10
S'lib/python2.7/site-packages/django/core/checks/registry'
p1982
sg12
g13
(g14
g15
NtRp1983
(dp1984
g18
I1
sg19
I0
sg20
I51
sg21
I0
sg22
I0
sg23
I15
sg24
I0
sbssg25
S'\x02M\x9c\x93wj\xf0\x0b^\x96\xeeL\xbeg+\x85'
p1985
ssS'lib_python2_7_site-packages_django_db_backends_base_schema'
p1986
(dp1987
g6
(dp1988
g8
S'lib_python2_7_site-packages_django_db_backends_base_schema.html'
p1989
sg10
S'lib/python2.7/site-packages/django/db/backends/base/schema'
p1990
sg12
g13
(g14
g15
NtRp1991
(dp1992
g18
I1
sg19
I0
sg20
I416
sg21
I0
sg22
I0
sg23
I243
sg24
I0
sbssg25
S't\xd6\t<\x93(\xb2\x03i\xf6C\x8c\x8b\xf2\xa5\x1a'
p1993
ssS'lib_python2_7_site-packages_django_core_mail___init__'
p1994
(dp1995
g6
(dp1996
g8
S'lib_python2_7_site-packages_django_core_mail___init__.html'
p1997
sg10
S'lib/python2.7/site-packages/django/core/mail/__init__'
p1998
sg12
g13
(g14
g15
NtRp1999
(dp2000
g18
I1
sg19
I0
sg20
I33
sg21
I0
sg22
I0
sg23
I22
sg24
I0
sbssg25
S'\x0b\xec~\x01VJ\x10\x14\xe9-\xf8]Y\x16I\xc8'
p2001
ssS'lib_python2_7_site-packages_django_contrib_admin_exceptions'
p2002
(dp2003
g6
(dp2004
g8
S'lib_python2_7_site-packages_django_contrib_admin_exceptions.html'
p2005
sg10
S'lib/python2.7/site-packages/django/contrib/admin/exceptions'
p2006
sg12
g13
(g14
g15
NtRp2007
(dp2008
g18
I1
sg19
I0
sg20
I5
sg21
I0
sg22
I0
sg23
I0
sg24
I0
sbssg25
S'J`\x85\xe1= \x00c\x95\xd7\x98\x0b\x0f\xf7\xf4\x7f'
p2009
ssS'lib_python2_7_site-packages_django_template_context'
p2010
(dp2011
g6
(dp2012
g8
S'lib_python2_7_site-packages_django_template_context.html'
p2013
sg10
S'lib/python2.7/site-packages/django/template/context'
p2014
sg12
g13
(g14
g15
NtRp2015
(dp2016
g18
I1
sg19
I0
sg20
I150
sg21
I0
sg22
I0
sg23
I105
sg24
I0
sbssg25
S'0\xd8\xb6\xb4A\xf9\xc5\xf3\xc7Q`.\xa2\x854{'
p2017
ssS'lib_python2_7_site-packages_django_contrib_auth___init__'
p2018
(dp2019
g6
(dp2020
g8
S'lib_python2_7_site-packages_django_contrib_auth___init__.html'
p2021
sg10
S'lib/python2.7/site-packages/django/contrib/auth/__init__'
p2022
sg12
g13
(g14
g15
NtRp2023
(dp2024
g18
I1
sg19
I0
sg20
I110
sg21
I0
sg22
I0
sg23
I82
sg24
I0
sbssg25
S'<\t\xc3\x1f\x88_Yf\xc8\x8c\xafE\xed\xba,\xfe'
p2025
ssS'lib_python2_7_site-packages_django_template_defaultfilters'
p2026
(dp2027
g6
(dp2028
g8
S'lib_python2_7_site-packages_django_template_defaultfilters.html'
p2029
sg10
S'lib/python2.7/site-packages/django/template/defaultfilters'
p2030
sg12
g13
(g14
g15
NtRp2031
(dp2032
g18
I1
sg19
I0
sg20
I466
sg21
I0
sg22
I0
sg23
I336
sg24
I0
sbssg25
S'>\x1d(\xeb\xear\xf6\xe2\x8a\x93\xa6\xeda\xae\xa7\xbf'
p2033
ssS'lib_python2_7_site-packages_django_apps___init__'
p2034
(dp2035
g6
(dp2036
g8
S'lib_python2_7_site-packages_django_apps___init__.html'
p2037
sg10
S'lib/python2.7/site-packages/django/apps/__init__'
p2038
sg12
g13
(g14
g15
NtRp2039
(dp2040
g18
I1
sg19
I0
sg20
I2
sg21
I0
sg22
I0
sg23
I0
sg24
I0
sbssg25
S'\x0c%\xf7&\xe8\xc2\xf7\xc3\xbe\xae,\xc0\xc1?\x18g'
p2041
ssS'lib_python2_7_site-packages_django_db_migrations_operations_fields'
p2042
(dp2043
g6
(dp2044
g8
S'lib_python2_7_site-packages_django_db_migrations_operations_fields.html'
p2045
sg10
S'lib/python2.7/site-packages/django/db/migrations/operations/fields'
p2046
sg12
g13
(g14
g15
NtRp2047
(dp2048
g18
I1
sg19
I0
sg20
I163
sg21
I0
sg22
I0
sg23
I50
sg24
I0
sbssg25
S"\xae\xfd\xc3\x96\xb90X\x14]'\xa1Zn;\x94n"
p2049
ssS'lib_python2_7_site-packages_django_utils_numberformat'
p2050
(dp2051
g6
(dp2052
g8
S'lib_python2_7_site-packages_django_utils_numberformat.html'
p2053
sg10
S'lib/python2.7/site-packages/django/utils/numberformat'
p2054
sg12
g13
(g14
g15
NtRp2055
(dp2056
g18
I1
sg19
I0
sg20
I34
sg21
I0
sg22
I0
sg23
I29
sg24
I0
sbssg25
S'\xb7G\xc1\xd5\x94\xb0r\t\xf8E3\xcb\x9b;\xec\xb9'
p2057
ssS'lib_python2_7_site-packages_django_utils_ipv6'
p2058
(dp2059
g6
(dp2060
g8
S'lib_python2_7_site-packages_django_utils_ipv6.html'
p2061
sg10
S'lib/python2.7/site-packages/django/utils/ipv6'
p2062
sg12
g13
(g14
g15
NtRp2063
(dp2064
g18
I1
sg19
I0
sg20
I108
sg21
I0
sg22
I0
sg23
I99
sg24
I0
sbssg25
S'\xcaR\x01\xb5\xa2\x9c\xb6\xd4\xa4\xe1\xffu\x0b\xd6\xec\x1c'
p2065
ssS'lib_python2_7_site-packages_django_template_backends_django'
p2066
(dp2067
g6
(dp2068
g8
S'lib_python2_7_site-packages_django_template_backends_django.html'
p2069
sg10
S'lib/python2.7/site-packages/django/template/backends/django'
p2070
sg12
g13
(g14
g15
NtRp2071
(dp2072
g18
I1
sg19
I0
sg20
I34
sg21
I0
sg22
I0
sg23
I18
sg24
I0
sbssg25
S"\xf3r\x1e\x01`\x02\x83m\x13\x16\x04'\xc0\xd9\xc1\x86"
p2073
ssS'lib_python2_7_site-packages_django_db_models_query'
p2074
(dp2075
g6
(dp2076
g8
S'lib_python2_7_site-packages_django_db_models_query.html'
p2077
sg10
S'lib/python2.7/site-packages/django/db/models/query'
p2078
sg12
g13
(g14
g15
NtRp2079
(dp2080
g18
I1
sg19
I0
sg20
I926
sg21
I0
sg22
I0
sg23
I616
sg24
I0
sbssg25
S"R\x1d\xa2?W'8\x91\xb06\xc4F3\x16\xed\x9b"
p2081
ssS'lib_python2_7_site-packages_django_db_utils'
p2082
(dp2083
g6
(dp2084
g8
S'lib_python2_7_site-packages_django_db_utils.html'
p2085
sg10
S'lib/python2.7/site-packages/django/db/utils'
p2086
sg12
g13
(g14
g15
NtRp2087
(dp2088
g18
I1
sg19
I0
sg20
I224
sg21
I0
sg22
I0
sg23
I85
sg24
I0
sbssg25
S'\x1aLn\xd0\x93#\xa7=\x12\xa3\xfd\xb9\xea&{\xdb'
p2089
ssS'lib_python2_7_site-packages_django_db_models_constants'
p2090
(dp2091
g6
(dp2092
g8
S'lib_python2_7_site-packages_django_db_models_constants.html'
p2093
sg10
S'lib/python2.7/site-packages/django/db/models/constants'
p2094
sg12
g13
(g14
g15
NtRp2095
(dp2096
g18
I1
sg19
I0
sg20
I1
sg21
I0
sg22
I0
sg23
I0
sg24
I0
sbssg25
S'\xb9g\xea"\xa4\xe6,\x8a\xed<\xce\xce_\x8fz\x0f'
p2097
ssS'lib_python2_7_site-packages_django_core_checks_model_checks'
p2098
(dp2099
g6
(dp2100
g8
S'lib_python2_7_site-packages_django_core_checks_model_checks.html'
p2101
sg10
S'lib/python2.7/site-packages/django/core/checks/model_checks'
p2102
sg12
g13
(g14
g15
NtRp2103
(dp2104
g18
I1
sg19
I0
sg20
I28
sg21
I0
sg22
I0
sg23
I19
sg24
I0
sbssg25
S'\xd5\xfc\xd9\n\xd1\xbc\xfb\xb9\xc6=\x1f\x1f\x9c\x89^\xbc'
p2105
ssS'lib_python2_7_site-packages_django_forms_forms'
p2106
(dp2107
g6
(dp2108
g8
S'lib_python2_7_site-packages_django_forms_forms.html'
p2109
sg10
S'lib/python2.7/site-packages/django/forms/forms'
p2110
sg12
g13
(g14
g15
NtRp2111
(dp2112
g18
I1
sg19
I0
sg20
I354
sg21
I0
sg22
I0
sg23
I264
sg24
I0
sbssg25
S'\x8eO\xba\x18\x8c\x8a\xe5P\xa5\xe4\x03\xaf\xfflS\x1d'
p2113
ssS'lib_python2_7_site-packages_django_contrib_messages_api'
p2114
(dp2115
g6
(dp2116
g8
S'lib_python2_7_site-packages_django_contrib_messages_api.html'
p2117
sg10
S'lib/python2.7/site-packages/django/contrib/messages/api'
p2118
sg12
g13
(g14
g15
NtRp2119
(dp2120
g18
I1
sg19
I0
sg20
I37
sg21
I0
sg22
I0
sg23
I22
sg24
I0
sbssg25
S'*\x90\x9c\xde\x9f\xd9c\x00\xdaNX \xde\x17\x92a'
p2121
ssS'lib_python2_7_site-packages_django_db_models_sql_query'
p2122
(dp2123
g6
(dp2124
g8
S'lib_python2_7_site-packages_django_db_models_sql_query.html'
p2125
sg10
S'lib/python2.7/site-packages/django/db/models/sql/query'
p2126
sg12
g13
(g14
g15
NtRp2127
(dp2128
g18
I1
sg19
I0
sg20
I1072
sg21
I0
sg22
I0
sg23
I626
sg24
I0
sbssg25
S'7\xd95\x9b\xe6\xf4\x82\xf4\x0e\x92)#\xa9\x86|6'
p2129
ssS'lib_python2_7_site-packages_django_utils___init__'
p2130
(dp2131
g6
(dp2132
g8
S'lib_python2_7_site-packages_django_utils___init__.html'
p2133
sg10
S'lib/python2.7/site-packages/django/utils/__init__'
p2134
sg12
g13
(g14
g15
NtRp2135
(dp2136
g18
I1
sg19
I0
sg20
I0
sg21
I0
sg22
I0
sg23
I0
sg24
I0
sbssg25
S'\xb0\xc8pN\xaf>\xa0\xbaz\x144\xe0A9\xb8?'
p2137
ssS'lib_python2_7_site-packages_django_contrib_sessions_backends___init__'
p2138
(dp2139
g6
(dp2140
g8
S'lib_python2_7_site-packages_django_contrib_sessions_backends___init__.html'
p2141
sg10
S'lib/python2.7/site-packages/django/contrib/sessions/backends/__init__'
p2142
sg12
g13
(g14
g15
NtRp2143
(dp2144
g18
I1
sg19
I0
sg20
I0
sg21
I0
sg22
I0
sg23
I0
sg24
I0
sbssg25
S'\xb0\xc8pN\xaf>\xa0\xbaz\x144\xe0A9\xb8?'
p2145
ssS'lib_python2_7_site-packages_django_utils_baseconv'
p2146
(dp2147
g6
(dp2148
g8
S'lib_python2_7_site-packages_django_utils_baseconv.html'
p2149
sg10
S'lib/python2.7/site-packages/django/utils/baseconv'
p2150
sg12
g13
(g14
g15
NtRp2151
(dp2152
g18
I1
sg19
I0
sg20
I48
sg21
I0
sg22
I0
sg23
I25
sg24
I0
sbssg25
S'\xb9\x9eaD\x8d=\x88\x80N5+D\xfcID\x8e'
p2153
ssS'lib_python2_7_site-packages_django_contrib_contenttypes_admin'
p2154
(dp2155
g6
(dp2156
g8
S'lib_python2_7_site-packages_django_contrib_contenttypes_admin.html'
p2157
sg10
S'lib/python2.7/site-packages/django/contrib/contenttypes/admin'
p2158
sg12
g13
(g14
g15
NtRp2159
(dp2160
g18
I1
sg19
I0
sg20
I55
sg21
I0
sg22
I0
sg23
I32
sg24
I0
sbssg25
S'\x8f}9\x1e\xa9\xc5\xf0\xdd\xa31@j7E\x967'
p2161
ssS'lib_python2_7_site-packages_django_core_checks_compatibility_django_1_7_0'
p2162
(dp2163
g6
(dp2164
g8
S'lib_python2_7_site-packages_django_core_checks_compatibility_django_1_7_0.html'
p2165
sg10
S'lib/python2.7/site-packages/django/core/checks/compatibility/django_1_7_0'
p2166
sg12
g13
(g14
g15
NtRp2167
(dp2168
g18
I1
sg19
I0
sg20
I11
sg21
I0
sg22
I0
sg23
I7
sg24
I0
sbssg25
S'ij\xa9\xcd\x1a\x90V]\xfc\xc7\r\x1e\xab\x04jJ'
p2169
ssS'lib_python2_7_site-packages_django_core_cache___init__'
p2170
(dp2171
g6
(dp2172
g8
S'lib_python2_7_site-packages_django_core_cache___init__.html'
p2173
sg10
S'lib/python2.7/site-packages/django/core/cache/__init__'
p2174
sg12
g13
(g14
g15
NtRp2175
(dp2176
g18
I1
sg19
I0
sg20
I72
sg21
I0
sg22
I0
sg23
I26
sg24
I0
sbssg25
S'\xa3\xb6Um7\xaco"\x8c\xc7\x9b\xc2\x08P\xf4E'
p2177
ssS'lib_python2_7_site-packages_django_contrib_sessions_models'
p2178
(dp2179
g6
(dp2180
g8
S'lib_python2_7_site-packages_django_contrib_sessions_models.html'
p2181
sg10
S'lib/python2.7/site-packages/django/contrib/sessions/models'
p2182
sg12
g13
(g14
g15
NtRp2183
(dp2184
g18
I1
sg19
I0
sg20
I29
sg21
I0
sg22
I0
sg23
I8
sg24
I0
sbssg25
S'X\x9e\xd9\x8f\xb0\x83\xc0\xed\xc5\x9eJ\x98\x1a\xfbP%'
p2185
ssS'lib_python2_7_site-packages_django_contrib_contenttypes_fields'
p2186
(dp2187
g6
(dp2188
g8
S'lib_python2_7_site-packages_django_contrib_contenttypes_fields.html'
p2189
sg10
S'lib/python2.7/site-packages/django/contrib/contenttypes/fields'
p2190
sg12
g13
(g14
g15
NtRp2191
(dp2192
g18
I1
sg19
I0
sg20
I310
sg21
I0
sg22
I0
sg23
I246
sg24
I0
sbssg25
S'\x17\xa9\x1d\x90\x91\xf5\xdd\xf7\x83\xfe\xc5\xa8Ee\xe1\x9b'
p2193
ssS'lib_python2_7_site-packages_django_core_checks___init__'
p2194
(dp2195
g6
(dp2196
g8
S'lib_python2_7_site-packages_django_core_checks___init__.html'
p2197
sg10
S'lib/python2.7/site-packages/django/core/checks/__init__'
p2198
sg12
g13
(g14
g15
NtRp2199
(dp2200
g18
I1
sg19
I0
sg20
I10
sg21
I0
sg22
I0
sg23
I0
sg24
I0
sbssg25
S'\x1adu\xa8\x96\xf1L\x1b8a\x08\x19\xbc\xff\x17\xba'
p2201
ssS'lib_python2_7_site-packages_django_contrib_contenttypes_apps'
p2202
(dp2203
g6
(dp2204
g8
S'lib_python2_7_site-packages_django_contrib_contenttypes_apps.html'
p2205
sg10
S'lib/python2.7/site-packages/django/contrib/contenttypes/apps'
p2206
sg12
g13
(g14
g15
NtRp2207
(dp2208
g18
I1
sg19
I0
sg20
I12
sg21
I0
sg22
I0
sg23
I0
sg24
I0
sbssg25
S'?\xd6\xbd\xe4\xf3\x1d\x86\x1e\xd5i\xde\xe2\xd6+\xfe\xf8'
p2209
ssS'lib_python2_7_site-packages_django_core_cache_backends___init__'
p2210
(dp2211
g6
(dp2212
g8
S'lib_python2_7_site-packages_django_core_cache_backends___init__.html'
p2213
sg10
S'lib/python2.7/site-packages/django/core/cache/backends/__init__'
p2214
sg12
g13
(g14
g15
NtRp2215
(dp2216
g18
I1
sg19
I0
sg20
I0
sg21
I0
sg22
I0
sg23
I0
sg24
I0
sbssg25
S'\xb0\xc8pN\xaf>\xa0\xbaz\x144\xe0A9\xb8?'
p2217
ssS'lib_python2_7_site-packages_django_contrib_sessions_backends_db'
p2218
(dp2219
g6
(dp2220
g8
S'lib_python2_7_site-packages_django_contrib_sessions_backends_db.html'
p2221
sg10
S'lib/python2.7/site-packages/django/contrib/sessions/backends/db'
p2222
sg12
g13
(g14
g15
NtRp2223
(dp2224
g18
I1
sg19
I0
sg20
I54
sg21
I0
sg22
I0
sg23
I39
sg24
I0
sbssg25
S'\xd8fY\x9bdk\xef\x8c\xd0v\xb0w\x86S\xf0\xfc'
p2225
ssS'lib_python2_7_site-packages_django_db_migrations_questioner'
p2226
(dp2227
g6
(dp2228
g8
S'lib_python2_7_site-packages_django_db_migrations_questioner.html'
p2229
sg10
S'lib/python2.7/site-packages/django/db/migrations/questioner'
p2230
sg12
g13
(g14
g15
NtRp2231
(dp2232
g18
I1
sg19
I0
sg20
I103
sg21
I0
sg22
I0
sg23
I77
sg24
I0
sbssg25
S'\x15V\x84\xe9W\xbe0\xea\x8e\x06Ln\xb4\x9f\xb2\x00'
p2233
ssS'lib_python2_7_site-packages_django_contrib_messages_constants'
p2234
(dp2235
g6
(dp2236
g8
S'lib_python2_7_site-packages_django_contrib_messages_constants.html'
p2237
sg10
S'lib/python2.7/site-packages/django/contrib/messages/constants'
p2238
sg12
g13
(g14
g15
NtRp2239
(dp2240
g18
I1
sg19
I0
sg20
I7
sg21
I0
sg22
I0
sg23
I0
sg24
I0
sbssg25
S'_ \x8bb\xed|\xfe\xd5\xbe\x06\xbb\xa4\xfd\xc5X\xb9'
p2241
ssS'lib_python2_7_site-packages_django_contrib_admin_models'
p2242
(dp2243
g6
(dp2244
g8
S'lib_python2_7_site-packages_django_contrib_admin_models.html'
p2245
sg10
S'lib/python2.7/site-packages/django/contrib/admin/models'
p2246
sg12
g13
(g14
g15
NtRp2247
(dp2248
g18
I1
sg19
I0
sg20
I57
sg21
I0
sg22
I0
sg23
I21
sg24
I0
sbssg25
S'\x80\xba\x85\xean\xcc\x9c\xa2\x84\xf4\xd3\x02\xc5\x8c\xf2\xd2'
p2249
ssS'lib_python2_7_site-packages_django_contrib_sessions_exceptions'
p2250
(dp2251
g6
(dp2252
g8
S'lib_python2_7_site-packages_django_contrib_sessions_exceptions.html'
p2253
sg10
S'lib/python2.7/site-packages/django/contrib/sessions/exceptions'
p2254
sg12
g13
(g14
g15
NtRp2255
(dp2256
g18
I1
sg19
I0
sg20
I5
sg21
I0
sg22
I0
sg23
I0
sg24
I0
sbssg25
S'\xb5o\x11z\x9e\x87\xc6\tc\xa3\xf8C\x84\xa9"Y'
p2257
ssS'lib_python2_7_site-packages_django_core_signing'
p2258
(dp2259
g6
(dp2260
g8
S'lib_python2_7_site-packages_django_core_signing.html'
p2261
sg10
S'lib/python2.7/site-packages/django/core/signing'
p2262
sg12
g13
(g14
g15
NtRp2263
(dp2264
g18
I1
sg19
I0
sg20
I90
sg21
I0
sg22
I0
sg23
I57
sg24
I0
sbssg25
S"\x1c\xfc_\xdcGZ\xa7\x80\x90\x0e\xc6\xe6`T'\x17"
p2265
ssS'lib_python2_7_site-packages_django_views_decorators_csrf'
p2266
(dp2267
g6
(dp2268
g8
S'lib_python2_7_site-packages_django_views_decorators_csrf.html'
p2269
sg10
S'lib/python2.7/site-packages/django/views/decorators/csrf'
p2270
sg12
g13
(g14
g15
NtRp2271
(dp2272
g18
I1
sg19
I0
sg20
I27
sg21
I0
sg22
I0
sg23
I9
sg24
I0
sbssg25
S'\x8f\xb9V\xb6\xf6\xeaX!>T\x18\x07\xde\xed\xfb\x03'
p2273
ssS'lib_python2_7_site-packages_django_contrib_admin_sites'
p2274
(dp2275
g6
(dp2276
g8
S'lib_python2_7_site-packages_django_contrib_admin_sites.html'
p2277
sg10
S'lib/python2.7/site-packages/django/contrib/admin/sites'
p2278
sg12
g13
(g14
g15
NtRp2279
(dp2280
g18
I1
sg19
I0
sg20
I228
sg21
I0
sg22
I0
sg23
I154
sg24
I0
sbssg25
S"\xa0\x81\x9b\xf3\xa8%\xef\x8cG\x98\x15\x9c\xdb\x9d'S"
p2281
ssS'lib_python2_7_site-packages_django_conf___init__'
p2282
(dp2283
g6
(dp2284
g8
S'lib_python2_7_site-packages_django_conf___init__.html'
p2285
sg10
S'lib/python2.7/site-packages/django/conf/__init__'
p2286
sg12
g13
(g14
g15
NtRp2287
(dp2288
g18
I1
sg19
I0
sg20
I87
sg21
I0
sg22
I0
sg23
I29
sg24
I0
sbssg25
S'\x92\xf9&\xed\x1f\xa2s3TZ\xf6\\f_\xad\xe6'
p2289
ssS'lib_python2_7_site-packages_django_utils_timezone'
p2290
(dp2291
g6
(dp2292
g8
S'lib_python2_7_site-packages_django_utils_timezone.html'
p2293
sg10
S'lib/python2.7/site-packages/django/utils/timezone'
p2294
sg12
g13
(g14
g15
NtRp2295
(dp2296
g18
I1
sg19
I0
sg20
I147
sg21
I0
sg22
I0
sg23
I89
sg24
I0
sbssg25
S'x\x80*@k\xd3\xa6\xebq\xd0e\xcc4\xd4\x9c\xf5'
p2297
ssS'lib_python2_7_site-packages_django_contrib_sessions___init__'
p2298
(dp2299
g6
(dp2300
g8
S'lib_python2_7_site-packages_django_contrib_sessions___init__.html'
p2301
sg10
S'lib/python2.7/site-packages/django/contrib/sessions/__init__'
p2302
sg12
g13
(g14
g15
NtRp2303
(dp2304
g18
I1
sg19
I0
sg20
I1
sg21
I0
sg22
I0
sg23
I0
sg24
I0
sbssg25
S'\x99j\xbb\x1d\xaf\xb9%M\xb7w\x0c\xdc\xd5\xec\xfe\xcc'
p2305
ssS'lib_python2_7_site-packages_django_test_signals'
p2306
(dp2307
g6
(dp2308
g8
S'lib_python2_7_site-packages_django_test_signals.html'
p2309
sg10
S'lib/python2.7/site-packages/django/test/signals'
p2310
sg12
g13
(g14
g15
NtRp2311
(dp2312
g18
I1
sg19
I0
sg20
I96
sg21
I0
sg22
I0
sg23
I71
sg24
I0
sbssg25
S'\x95G\x95F\xd5\x12\xe4{\x16\xb0\xde\xbfNm5M'
p2313
ssS'lib_python2_7_site-packages_django_utils_safestring'
p2314
(dp2315
g6
(dp2316
g8
S'lib_python2_7_site-packages_django_utils_safestring.html'
p2317
sg10
S'lib/python2.7/site-packages/django/utils/safestring'
p2318
sg12
g13
(g14
g15
NtRp2319
(dp2320
g18
I1
sg19
I0
sg20
I63
sg21
I0
sg22
I0
sg23
I34
sg24
I0
sbssg25
S'\xa3\x05\x98NuI\x1f\xfa\xc6-\xee|@\xe5\xa03'
p2321
ssS'lib_python2_7_site-packages_django_forms_utils'
p2322
(dp2323
g6
(dp2324
g8
S'lib_python2_7_site-packages_django_forms_utils.html'
p2325
sg10
S'lib/python2.7/site-packages/django/forms/utils'
p2326
sg12
g13
(g14
g15
NtRp2327
(dp2328
g18
I1
sg19
I0
sg20
I98
sg21
I0
sg22
I0
sg23
I58
sg24
I0
sbssg25
S'\xa2T\x0f6O`UWp\xa0j\x9eH\xdd\xef\xa4'
p2329
ssS'lib_python2_7_site-packages_django_core_files_utils'
p2330
(dp2331
g6
(dp2332
g8
S'lib_python2_7_site-packages_django_core_files_utils.html'
p2333
sg10
S'lib/python2.7/site-packages/django/core/files/utils'
p2334
sg12
g13
(g14
g15
NtRp2335
(dp2336
g18
I1
sg19
I0
sg20
I19
sg21
I0
sg22
I0
sg23
I1
sg24
I0
sbssg25
S'\x91@)\xe4(\x81\xd6\xb8\x9b\x16\xc4\xeeh\x11e\xff'
p2337
ssS'lib_python2_7_site-packages_django_db_models_query_utils'
p2338
(dp2339
g6
(dp2340
g8
S'lib_python2_7_site-packages_django_db_models_query_utils.html'
p2341
sg10
S'lib/python2.7/site-packages/django/db/models/query_utils'
p2342
sg12
g13
(g14
g15
NtRp2343
(dp2344
g18
I1
sg19
I0
sg20
I143
sg21
I0
sg22
I0
sg23
I107
sg24
I0
sbssg25
S'\xea\xa6\xaazg)\xbcE6>\xc5\x9f\xdd\x1e\xe2x'
p2345
ssS'wardenslog___init__'
p2346
(dp2347
g6
(dp2348
g8
S'wardenslog___init__.html'
p2349
sg10
S'wardenslog/__init__'
p2350
sg12
g13
(g14
g15
NtRp2351
(dp2352
g18
I1
sg19
I0
sg20
I0
sg21
I0
sg22
I0
sg23
I0
sg24
I0
sbssg25
S'\xb0\xc8pN\xaf>\xa0\xbaz\x144\xe0A9\xb8?'
p2353
ssS'lib_python2_7_site-packages_django_db_models_sql_subqueries'
p2354
(dp2355
g6
(dp2356
g8
S'lib_python2_7_site-packages_django_db_models_sql_subqueries.html'
p2357
sg10
S'lib/python2.7/site-packages/django/db/models/sql/subqueries'
p2358
sg12
g13
(g14
g15
NtRp2359
(dp2360
g18
I1
sg19
I0
sg20
I104
sg21
I0
sg22
I0
sg23
I68
sg24
I0
sbssg25
S'\x1ei\xa30\x13\x96\x82e\xc1\xa9\xc4z\xe8+\x1c\xdb'
p2361
ssS'wardens___init__'
p2362
(dp2363
g6
(dp2364
g8
S'wardens___init__.html'
p2365
sg10
S'wardens/__init__'
p2366
sg12
g13
(g14
g15
NtRp2367
(dp2368
g18
I1
sg19
I0
sg20
I0
sg21
I0
sg22
I0
sg23
I0
sg24
I0
sbssg25
S'\xb0\xc8pN\xaf>\xa0\xbaz\x144\xe0A9\xb8?'
p2369
ssS'wardens_migrations_0012_auto_20160728_1645'
p2370
(dp2371
g6
(dp2372
g8
S'wardens_migrations_0012_auto_20160728_1645.html'
p2373
sg10
S'wardens/migrations/0012_auto_20160728_1645'
p2374
sg12
g13
(g14
g15
NtRp2375
(dp2376
g18
I1
sg19
I0
sg20
I5
sg21
I0
sg22
I0
sg23
I0
sg24
I0
sbssg25
S'.6\xfd>\x14\x17\xed\xa3\x8b|\xc1\x99\x84\xa8\xc9T'
p2377
ssS'lib_python2_7_site-packages_django_db_backends_sqlite3_operations'
p2378
(dp2379
g6
(dp2380
g8
S'lib_python2_7_site-packages_django_db_backends_sqlite3_operations.html'
p2381
sg10
S'lib/python2.7/site-packages/django/db/backends/sqlite3/operations'
p2382
sg12
g13
(g14
g15
NtRp2383
(dp2384
g18
I1
sg19
I0
sg20
I126
sg21
I0
sg22
I0
sg23
I55
sg24
I0
sbssg25
S'\x85R\xf4\xb1\x0c\t\x1d\xc5\xc9z\xb1v\xf2\xd7\x8en'
p2385
ssS'wardens_migrations_0001_initial'
p2386
(dp2387
g6
(dp2388
g8
S'wardens_migrations_0001_initial.html'
p2389
sg10
S'wardens/migrations/0001_initial'
p2390
sg12
g13
(g14
g15
NtRp2391
(dp2392
g18
I1
sg19
I0
sg20
I7
sg21
I0
sg22
I0
sg23
I0
sg24
I0
sbssg25
S'\xf0}kU\xb1\x12\xf9\x0eL\xd83 \x02\xe5&\xee'
p2393
ssS'lib_python2_7_site-packages_django_contrib_admin___init__'
p2394
(dp2395
g6
(dp2396
g8
S'lib_python2_7_site-packages_django_contrib_admin___init__.html'
p2397
sg10
S'lib/python2.7/site-packages/django/contrib/admin/__init__'
p2398
sg12
g13
(g14
g15
NtRp2399
(dp2400
g18
I1
sg19
I0
sg20
I10
sg21
I0
sg22
I0
sg23
I0
sg24
I0
sbssg25
S'\x99"\xce1\xc2\x1f|8d,hO\x9c\xa8\'z'
p2401
ssS'lib_python2_7_site-packages_django_utils_html'
p2402
(dp2403
g6
(dp2404
g8
S'lib_python2_7_site-packages_django_utils_html.html'
p2405
sg10
S'lib/python2.7/site-packages/django/utils/html'
p2406
sg12
g13
(g14
g15
NtRp2407
(dp2408
g18
I1
sg19
I0
sg20
I200
sg21
I0
sg22
I0
sg23
I137
sg24
I0
sbssg25
S'\xa6\rw\xfd\xd2J]1\xd7\xdbw\xa0*\x9d\xc3\xeb'
p2409
ssS'lib_python2_7_site-packages_django_contrib_admin_widgets'
p2410
(dp2411
g6
(dp2412
g8
S'lib_python2_7_site-packages_django_contrib_admin_widgets.html'
p2413
sg10
S'lib/python2.7/site-packages/django/contrib/admin/widgets'
p2414
sg12
g13
(g14
g15
NtRp2415
(dp2416
g18
I1
sg19
I0
sg20
I238
sg21
I0
sg22
I0
sg23
I164
sg24
I0
sbssg25
S'\xca\x7fCL\xd0\x0eW\xc8$>A\xd0TM\xbb$'
p2417
ssS'lib_python2_7_site-packages_django_contrib_admin_helpers'
p2418
(dp2419
g6
(dp2420
g8
S'lib_python2_7_site-packages_django_contrib_admin_helpers.html'
p2421
sg10
S'lib/python2.7/site-packages/django/contrib/admin/helpers'
p2422
sg12
g13
(g14
g15
NtRp2423
(dp2424
g18
I1
sg19
I0
sg20
I226
sg21
I0
sg22
I0
sg23
I162
sg24
I0
sbssg25
S'\xbe^\x9cl0\x00&\x1b\xea8\xb1c_\x9e\x92A'
p2425
ssS'lib_python2_7_site-packages_django_core_serializers_pyyaml'
p2426
(dp2427
g6
(dp2428
g8
S'lib_python2_7_site-packages_django_core_serializers_pyyaml.html'
p2429
sg10
S'lib/python2.7/site-packages/django/core/serializers/pyyaml'
p2430
sg12
g13
(g14
g15
NtRp2431
(dp2432
g18
I1
sg19
I0
sg20
I40
sg21
I0
sg22
I0
sg23
I36
sg24
I0
sbssg25
S'\xc5\xc9\xb8q\xab\xbd\x9ek\xd1\xbc\xc2\x90\x081<\xc8'
p2433
ssS'lib_python2_7_site-packages_django_contrib_staticfiles___init__'
p2434
(dp2435
g6
(dp2436
g8
S'lib_python2_7_site-packages_django_contrib_staticfiles___init__.html'
p2437
sg10
S'lib/python2.7/site-packages/django/contrib/staticfiles/__init__'
p2438
sg12
g13
(g14
g15
NtRp2439
(dp2440
g18
I1
sg19
I0
sg20
I1
sg21
I0
sg22
I0
sg23
I0
sg24
I0
sbssg25
S'o\xf4\x8a\xb6\x10I\xf4G\xa2_\xba$\xf9\xd2\xb1{'
p2441
ssS'lib_python2_7_site-packages_django_db_models_fields_proxy'
p2442
(dp2443
g6
(dp2444
g8
S'lib_python2_7_site-packages_django_db_models_fields_proxy.html'
p2445
sg10
S'lib/python2.7/site-packages/django/db/models/fields/proxy'
p2446
sg12
g13
(g14
g15
NtRp2447
(dp2448
g18
I1
sg19
I0
sg20
I10
sg21
I0
sg22
I0
sg23
I6
sg24
I0
sbssg25
S'\xdfIF\x9a8\x04\x87\x8d\x99=\xbek\xbf\xd0\x85\xf5'
p2449
ssS'lib_python2_7_site-packages_django_core_management_sql'
p2450
(dp2451
g6
(dp2452
g8
S'lib_python2_7_site-packages_django_core_management_sql.html'
p2453
sg10
S'lib/python2.7/site-packages/django/core/management/sql'
p2454
sg12
g13
(g14
g15
NtRp2455
(dp2456
g18
I1
sg19
I0
sg20
I155
sg21
I0
sg22
I0
sg23
I115
sg24
I0
sbssg25
S'\xebH1\xfe\x91\x92x\\%(K<\x84\xa7\xfc\x0b'
p2457
ssS'lib_python2_7_site-packages_django_contrib_auth_hashers'
p2458
(dp2459
g6
(dp2460
g8
S'lib_python2_7_site-packages_django_contrib_auth_hashers.html'
p2461
sg10
S'lib/python2.7/site-packages/django/contrib/auth/hashers'
p2462
sg12
g13
(g14
g15
NtRp2463
(dp2464
g18
I1
sg19
I0
sg20
I266
sg21
I0
sg22
I0
sg23
I170
sg24
I0
sbssg25
S'M({\xc3\x94\xdf3b\x98\xf1x\xd9\x13\xf2\xb1\xc1'
p2465
ssS'lib_python2_7_site-packages_django_test_runner'
p2466
(dp2467
g6
(dp2468
g8
S'lib_python2_7_site-packages_django_test_runner.html'
p2469
sg10
S'lib/python2.7/site-packages/django/test/runner'
p2470
sg12
g13
(g14
g15
NtRp2471
(dp2472
g18
I1
sg19
I0
sg20
I215
sg21
I0
sg22
I0
sg23
I53
sg24
I0
sbssg25
S"B\xd2\xe09'\x1f\n=\x15r\x19O}\x972\x92"
p2473
ssS'lib_python2_7_site-packages_django_utils_encoding'
p2474
(dp2475
g6
(dp2476
g8
S'lib_python2_7_site-packages_django_utils_encoding.html'
p2477
sg10
S'lib/python2.7/site-packages/django/utils/encoding'
p2478
sg12
g13
(g14
g15
NtRp2479
(dp2480
g18
I1
sg19
I0
sg20
I116
sg21
I0
sg22
I0
sg23
I52
sg24
I0
sbssg25
S"\xc9)\x0c*\x9fm\x9c\xbe\xbe(\xc7'\xab\xcak\xf8"
p2481
ssS'lib_python2_7_site-packages_django_db_migrations_operations___init__'
p2482
(dp2483
g6
(dp2484
g8
S'lib_python2_7_site-packages_django_db_migrations_operations___init__.html'
p2485
sg10
S'lib/python2.7/site-packages/django/db/migrations/operations/__init__'
p2486
sg12
g13
(g14
g15
NtRp2487
(dp2488
g18
I1
sg19
I0
sg20
I4
sg21
I0
sg22
I0
sg23
I0
sg24
I0
sbssg25
S'\t\x9f\xa5\x1e\x04r\xff\xfc\x94\xa9W\x90\x86\x9d\x88['
p2489
ssS'lib_python2_7_site-packages_django_core_checks_compatibility_django_1_8_0'
p2490
(dp2491
g6
(dp2492
g8
S'lib_python2_7_site-packages_django_core_checks_compatibility_django_1_8_0.html'
p2493
sg10
S'lib/python2.7/site-packages/django/core/checks/compatibility/django_1_8_0'
p2494
sg12
g13
(g14
g15
NtRp2495
(dp2496
g18
I1
sg19
I0
sg20
I10
sg21
I0
sg22
I0
sg23
I6
sg24
I0
sbssg25
S'\xad\x19\xcf~+\xa9\r.\xc1\rK\xff\xf6\x8f\xe6I'
p2497
ssS'lib_python2_7_site-packages_django_dispatch_weakref_backports'
p2498
(dp2499
g6
(dp2500
g8
S'lib_python2_7_site-packages_django_dispatch_weakref_backports.html'
p2501
sg10
S'lib/python2.7/site-packages/django/dispatch/weakref_backports'
p2502
sg12
g13
(g14
g15
NtRp2503
(dp2504
g18
I1
sg19
I0
sg20
I40
sg21
I0
sg22
I0
sg23
I18
sg24
I0
sbssg25
S'\x94c V\xe8\xd2>\xc4\xc3\x88\x850@\x95\xea\x19'
p2505
ssS'lib_python2_7_site-packages_django_utils_datetime_safe'
p2506
(dp2507
g6
(dp2508
g8
S'lib_python2_7_site-packages_django_utils_datetime_safe.html'
p2509
sg10
S'lib/python2.7/site-packages/django/utils/datetime_safe'
p2510
sg12
g13
(g14
g15
NtRp2511
(dp2512
g18
I1
sg19
I0
sg20
I58
sg21
I0
sg22
I0
sg23
I42
sg24
I0
sbssg25
S'\xdb2\xd6|\xd2&\xa9D\x8b\xe2\x13\x99\xc8\xfe\xa58'
p2513
sssS'version'
p2514
S'3.6'
p2515
sS'settings'
p2516
S'3\xcf\xa1\x19.\x88o$\x8cA\xde\xbd\xcd\x06\xa1\x0f'
p2517
sS'format'
p2518
I1
s.